EXPORTS
 "_Z10saveToFileRSt6vectorIS_IS_IS_IS_IS_IS_IdSaIdEESaIS1_EESaIS3_EESaIS5_EESaIS7_EESaIS9_EESaISB_EENSt7__cxx1112basic_stringIcSt11char_traitsIcESaIcEEER10parametersii"
 "_Z12modelDynamiciiRSt6vectorIS_IS_IS_IS_IS_IS_IdSaIdEESaIS1_EESaIS3_EESaIS5_EESaIS7_EESaIS9_EESaISB_EER10parameters"
 "_Z19loadInputParametersNSt7__cxx1112basic_stringIcSt11char_traitsIcESaIcEEERSt6vectorIS5_IS5_IS5_IS5_IS5_IS5_IdSaIdEESaIS7_EESaIS9_EESaISB_EESaISD_EESaISF_EESaISH_EER10parameters"
 "_Z7dataptrP7SEXPREC"
 "_Z8runmodelN4Rcpp6VectorILi19ENS_15PreserveStorageEEE"
 "_Z9sumVectorRSt6vectorIS_IS_IS_IS_IS_IS_IdSaIdEESaIS1_EESaIS3_EESaIS5_EESaIS7_EESaIS9_EESaISB_EEiiiiiiiiiiiiii"
 "_ZdlPvS_"
 "_ZGVZ7dataptrP7SEXPRECE3fun"
 "_ZN10parametersC1Ev"
 "_ZN10parametersD1Ev"
 "_ZN10tinyformat10FormatListC2EPNS_6detail9FormatArgEi"
 "_ZN10tinyformat11formatValueIiEEvRSoPKcS3_iRKT_"
 "_ZN10tinyformat11formatValueINSt7__cxx1112basic_stringIcSt11char_traitsIcESaIcEEEEEvRSoPKcS9_iRKT_"
 "_ZN10tinyformat14makeFormatListIJEEENS_6detail11FormatListNIXsZT_EEEDpRKT_"
 "_ZN10tinyformat14makeFormatListIJiEEENS_6detail11FormatListNIXsZT_EEEDpRKT_"
 "_ZN10tinyformat14makeFormatListIJNSt7__cxx1112basic_stringIcSt11char_traitsIcESaIcEEEEEENS_6detail11FormatListNIXsZT_EEEDpRKT_"
 "_ZN10tinyformat6detail10formatImplERSoPKcPKNS0_9FormatArgEi"
 "_ZN10tinyformat6detail11FormatListNILi0EEC1Ev"
 "_ZN10tinyformat6detail11FormatListNILi1EEC1IJiEEEDpRKT_"
 "_ZN10tinyformat6detail11FormatListNILi1EEC1IJNSt7__cxx1112basic_stringIcSt11char_traitsIcESaIcEEEEEEDpRKT_"
 "_ZN10tinyformat6detail12convertToIntIiLb1EE6invokeERKi"
 "_ZN10tinyformat6detail12convertToIntINSt7__cxx1112basic_stringIcSt11char_traitsIcESaIcEEELb0EE6invokeERKS7_"
 "_ZN10tinyformat6detail15formatTruncatedIiEEvRSoRKT_i"
 "_ZN10tinyformat6detail15formatTruncatedINSt7__cxx1112basic_stringIcSt11char_traitsIcESaIcEEEEEvRSoRKT_i"
 "_ZN10tinyformat6detail17formatValueAsTypeIicLb1EE6invokeERSoRKi"
 "_ZN10tinyformat6detail18parseIntAndAdvanceERPKc"
 "_ZN10tinyformat6detail21streamStateFromFormatERSoRbRiPKcPKNS0_9FormatArgES3_i"
 "_ZN10tinyformat6detail24printFormatStringLiteralERSoPKc"
 "_ZN10tinyformat6detail9FormatArg10formatImplIiEEvRSoPKcS5_iPKv"
 "_ZN10tinyformat6detail9FormatArg10formatImplINSt7__cxx1112basic_stringIcSt11char_traitsIcESaIcEEEEEvRSoPKcSB_iPKv"
 "_ZN10tinyformat6detail9FormatArg9toIntImplIiEEiPKv"
 "_ZN10tinyformat6detail9FormatArg9toIntImplINSt7__cxx1112basic_stringIcSt11char_traitsIcESaIcEEEEEiPKv"
 "_ZN10tinyformat6detail9FormatArgC1IiEERKT_"
 "_ZN10tinyformat6detail9FormatArgC1INSt7__cxx1112basic_stringIcSt11char_traitsIcESaIcEEEEERKT_"
 "_ZN10tinyformat6formatIJEEENSt7__cxx1112basic_stringIcSt11char_traitsIcESaIcEEEPKcDpRKT_"
 "_ZN10tinyformat6formatIJEEEvRSoPKcDpRKT_"
 "_ZN10tinyformat6formatIJiEEENSt7__cxx1112basic_stringIcSt11char_traitsIcESaIcEEEPKcDpRKT_"
 "_ZN10tinyformat6formatIJiEEEvRSoPKcDpRKT_"
 "_ZN10tinyformat6formatIJNSt7__cxx1112basic_stringIcSt11char_traitsIcESaIcEEEEEES6_PKcDpRKT_"
 "_ZN10tinyformat6formatIJNSt7__cxx1112basic_stringIcSt11char_traitsIcESaIcEEEEEEvRSoPKcDpRKT_"
 "_ZN10tinyformat7vformatERSoPKcRKNS_10FormatListE"
 "_ZN4Rcpp10RstreambufILb0EE4syncEv"
 "_ZN4Rcpp10RstreambufILb0EE6xsputnEPKcx"
 "_ZN4Rcpp10RstreambufILb0EE8overflowEi"
 "_ZN4Rcpp10RstreambufILb0EEC1Ev"
 "_ZN4Rcpp10RstreambufILb0EED0Ev"
 "_ZN4Rcpp10RstreambufILb0EED1Ev"
 "_ZN4Rcpp10RstreambufILb1EE4syncEv"
 "_ZN4Rcpp10RstreambufILb1EE6xsputnEPKcx"
 "_ZN4Rcpp10RstreambufILb1EE8overflowEi"
 "_ZN4Rcpp10RstreambufILb1EEC1Ev"
 "_ZN4Rcpp10RstreambufILb1EED0Ev"
 "_ZN4Rcpp10RstreambufILb1EED1Ev"
 "_ZN4Rcpp12Rcpp_protectEP7SEXPREC"
 "_ZN4Rcpp14not_compatibleC1IJiEEEPKcDpOT_"
 "_ZN4Rcpp14not_compatibleD0Ev"
 "_ZN4Rcpp14not_compatibleD1Ev"
 "_ZN4Rcpp14Rcpp_unprotectEi"
 "_ZN4Rcpp19index_out_of_boundsC1IJEEEPKcDpOT_"
 "_ZN4Rcpp19index_out_of_boundsC1IJRKNSt7__cxx1112basic_stringIcSt11char_traitsIcESaIcEEEEEEPKcDpOT_"
 "_ZN4Rcpp19index_out_of_boundsD0Ev"
 "_ZN4Rcpp19index_out_of_boundsD1Ev"
 "_ZN4Rcpp2asIiEET_P7SEXPREC"
 "_ZN4Rcpp4stopERKNSt7__cxx1112basic_stringIcSt11char_traitsIcESaIcEEE"
 "_ZN4Rcpp6r_castILi13EEEP7SEXPRECS2_"
 "_ZN4Rcpp6ShieldIP7SEXPRECEC1ES2_"
 "_ZN4Rcpp6ShieldIP7SEXPRECED1Ev"
 "_ZN4Rcpp6traits11proxy_cacheILi19ENS_15PreserveStorageEE3refEx"
 "_ZN4Rcpp6VectorILi19ENS_15PreserveStorageEEixERKNSt7__cxx1112basic_stringIcSt11char_traitsIcESaIcEEE"
 "_ZN4Rcpp6VectorILi19ENS_15PreserveStorageEEixEx"
 "_ZN4Rcpp8internal10basic_castILi13EEEP7SEXPRECS3_"
 "_ZN4Rcpp8internal11r_true_castILi13EEEP7SEXPRECS3_"
 "_ZN4Rcpp8internal12primitive_asIiEET_P7SEXPREC"
 "_ZN4Rcpp8internal13generic_proxyILi19ENS_15PreserveStorageEEC1ERNS_6VectorILi19ES2_EEx"
 "_ZN4Rcpp8internal14r_vector_startILi13EEEPNS_6traits12storage_typeIXT_EE4typeEP7SEXPREC"
 "_ZN4Rcpp8internal16NamedPlaceHolderC1Ev"
 "_ZN4Rcpp8internal16NamedPlaceHolderD1Ev"
 "_ZN4Rcpp8internal18generic_name_proxyILi19ENS_15PreserveStorageEEC1ERNS_6VectorILi19ES2_EERKNSt7__cxx1112basic_stringIcSt11char_traitsIcESaIcEEE"
 "_ZN4Rcpp8internal18generic_name_proxyILi19ENS_15PreserveStorageEED1Ev"
 "_ZN4Rcpp8internal2asIiEET_P7SEXPRECNS_6traits20r_type_primitive_tagE"
 "_ZN4Rcpp8internal6casterIiiEET0_T_"
 "_ZN4Rcpp8RostreamILb0EEC1Ev"
 "_ZN4Rcpp8RostreamILb0EED0Ev"
 "_ZN4Rcpp8RostreamILb0EED1Ev"
 "_ZN4Rcpp8RostreamILb1EEC1Ev"
 "_ZN4Rcpp8RostreamILb1EED0Ev"
 "_ZN4Rcpp8RostreamILb1EED1Ev"
 "_ZN4Rcpp9exception18record_stack_traceEv"
 "_ZN4Rcpp9exceptionC1EPKcb"
 "_ZN4Rcpp9exceptionD0Ev"
 "_ZN4Rcpp9exceptionD1Ev"
 "_ZN9__gnu_cxx13new_allocatorIdE10deallocateEPdy"
 "_ZN9__gnu_cxx13new_allocatorIdE7destroyIdEEvPT_"
 "_ZN9__gnu_cxx13new_allocatorIdE8allocateEyPKv"
 "_ZN9__gnu_cxx13new_allocatorIdE9constructIdJdEEEvPT_DpOT0_"
 "_ZN9__gnu_cxx13new_allocatorIdE9constructIdJRKdEEEvPT_DpOT0_"
 "_ZN9__gnu_cxx13new_allocatorIdEC2ERKS1_"
 "_ZN9__gnu_cxx13new_allocatorIdEC2Ev"
 "_ZN9__gnu_cxx13new_allocatorIdED2Ev"
 "_ZN9__gnu_cxx13new_allocatorINSt7__cxx1112basic_stringIcSt11char_traitsIcESaIcEEEE10deallocateEPS6_y"
 "_ZN9__gnu_cxx13new_allocatorINSt7__cxx1112basic_stringIcSt11char_traitsIcESaIcEEEEC2Ev"
 "_ZN9__gnu_cxx13new_allocatorINSt7__cxx1112basic_stringIcSt11char_traitsIcESaIcEEEED2Ev"
 "_ZN9__gnu_cxx13new_allocatorISt6vectorIdSaIdEEE10deallocateEPS3_y"
 "_ZN9__gnu_cxx13new_allocatorISt6vectorIdSaIdEEE7destroyIS3_EEvPT_"
 "_ZN9__gnu_cxx13new_allocatorISt6vectorIdSaIdEEE8allocateEyPKv"
 "_ZN9__gnu_cxx13new_allocatorISt6vectorIdSaIdEEE9constructIS3_JRKS3_EEEvPT_DpOT0_"
 "_ZN9__gnu_cxx13new_allocatorISt6vectorIdSaIdEEE9constructIS3_JS3_EEEvPT_DpOT0_"
 "_ZN9__gnu_cxx13new_allocatorISt6vectorIdSaIdEEEC2ERKS4_"
 "_ZN9__gnu_cxx13new_allocatorISt6vectorIdSaIdEEEC2Ev"
 "_ZN9__gnu_cxx13new_allocatorISt6vectorIdSaIdEEED2Ev"
 "_ZN9__gnu_cxx13new_allocatorISt6vectorIS1_IdSaIdEESaIS3_EEE10deallocateEPS5_y"
 "_ZN9__gnu_cxx13new_allocatorISt6vectorIS1_IdSaIdEESaIS3_EEE7destroyIS5_EEvPT_"
 "_ZN9__gnu_cxx13new_allocatorISt6vectorIS1_IdSaIdEESaIS3_EEE8allocateEyPKv"
 "_ZN9__gnu_cxx13new_allocatorISt6vectorIS1_IdSaIdEESaIS3_EEE9constructIS5_JS5_EEEvPT_DpOT0_"
 "_ZN9__gnu_cxx13new_allocatorISt6vectorIS1_IdSaIdEESaIS3_EEEC2ERKS6_"
 "_ZN9__gnu_cxx13new_allocatorISt6vectorIS1_IdSaIdEESaIS3_EEEC2Ev"
 "_ZN9__gnu_cxx13new_allocatorISt6vectorIS1_IdSaIdEESaIS3_EEED2Ev"
 "_ZN9__gnu_cxx13new_allocatorISt6vectorIS1_IS1_IdSaIdEESaIS3_EESaIS5_EEE10deallocateEPS7_y"
 "_ZN9__gnu_cxx13new_allocatorISt6vectorIS1_IS1_IdSaIdEESaIS3_EESaIS5_EEE7destroyIS7_EEvPT_"
 "_ZN9__gnu_cxx13new_allocatorISt6vectorIS1_IS1_IdSaIdEESaIS3_EESaIS5_EEE8allocateEyPKv"
 "_ZN9__gnu_cxx13new_allocatorISt6vectorIS1_IS1_IdSaIdEESaIS3_EESaIS5_EEE9constructIS7_JS7_EEEvPT_DpOT0_"
 "_ZN9__gnu_cxx13new_allocatorISt6vectorIS1_IS1_IdSaIdEESaIS3_EESaIS5_EEEC2ERKS8_"
 "_ZN9__gnu_cxx13new_allocatorISt6vectorIS1_IS1_IdSaIdEESaIS3_EESaIS5_EEEC2Ev"
 "_ZN9__gnu_cxx13new_allocatorISt6vectorIS1_IS1_IdSaIdEESaIS3_EESaIS5_EEED2Ev"
 "_ZN9__gnu_cxx13new_allocatorISt6vectorIS1_IS1_IS1_IdSaIdEESaIS3_EESaIS5_EESaIS7_EEE10deallocateEPS9_y"
 "_ZN9__gnu_cxx13new_allocatorISt6vectorIS1_IS1_IS1_IdSaIdEESaIS3_EESaIS5_EESaIS7_EEE8allocateEyPKv"
 "_ZN9__gnu_cxx13new_allocatorISt6vectorIS1_IS1_IS1_IdSaIdEESaIS3_EESaIS5_EESaIS7_EEEC2ERKSA_"
 "_ZN9__gnu_cxx13new_allocatorISt6vectorIS1_IS1_IS1_IdSaIdEESaIS3_EESaIS5_EESaIS7_EEEC2Ev"
 "_ZN9__gnu_cxx13new_allocatorISt6vectorIS1_IS1_IS1_IdSaIdEESaIS3_EESaIS5_EESaIS7_EEED2Ev"
 "_ZN9__gnu_cxx13new_allocatorISt6vectorIS1_IS1_IS1_IS1_IdSaIdEESaIS3_EESaIS5_EESaIS7_EESaIS9_EEE10deallocateEPSB_y"
 "_ZN9__gnu_cxx13new_allocatorISt6vectorIS1_IS1_IS1_IS1_IdSaIdEESaIS3_EESaIS5_EESaIS7_EESaIS9_EEE8allocateEyPKv"
 "_ZN9__gnu_cxx13new_allocatorISt6vectorIS1_IS1_IS1_IS1_IdSaIdEESaIS3_EESaIS5_EESaIS7_EESaIS9_EEEC2ERKSC_"
 "_ZN9__gnu_cxx13new_allocatorISt6vectorIS1_IS1_IS1_IS1_IdSaIdEESaIS3_EESaIS5_EESaIS7_EESaIS9_EEEC2Ev"
 "_ZN9__gnu_cxx13new_allocatorISt6vectorIS1_IS1_IS1_IS1_IdSaIdEESaIS3_EESaIS5_EESaIS7_EESaIS9_EEED2Ev"
 "_ZN9__gnu_cxx13new_allocatorISt6vectorIS1_IS1_IS1_IS1_IS1_IdSaIdEESaIS3_EESaIS5_EESaIS7_EESaIS9_EESaISB_EEE10deallocateEPSD_y"
 "_ZN9__gnu_cxx13new_allocatorISt6vectorIS1_IS1_IS1_IS1_IS1_IdSaIdEESaIS3_EESaIS5_EESaIS7_EESaIS9_EESaISB_EEE8allocateEyPKv"
 "_ZN9__gnu_cxx13new_allocatorISt6vectorIS1_IS1_IS1_IS1_IS1_IdSaIdEESaIS3_EESaIS5_EESaIS7_EESaIS9_EESaISB_EEEC2ERKSE_"
 "_ZN9__gnu_cxx13new_allocatorISt6vectorIS1_IS1_IS1_IS1_IS1_IdSaIdEESaIS3_EESaIS5_EESaIS7_EESaIS9_EESaISB_EEEC2Ev"
 "_ZN9__gnu_cxx13new_allocatorISt6vectorIS1_IS1_IS1_IS1_IS1_IdSaIdEESaIS3_EESaIS5_EESaIS7_EESaIS9_EESaISB_EEED2Ev"
 "_ZN9__gnu_cxx14__alloc_traitsISaIdEdE17_S_select_on_copyERKS1_"
 "_ZN9__gnu_cxx14__alloc_traitsISaISt6vectorIdSaIdEEES3_E17_S_select_on_copyERKS4_"
 "_ZN9__gnu_cxx14__alloc_traitsISaISt6vectorIS1_IdSaIdEESaIS3_EEES5_E17_S_select_on_copyERKS6_"
 "_ZN9__gnu_cxx14__alloc_traitsISaISt6vectorIS1_IS1_IdSaIdEESaIS3_EESaIS5_EEES7_E17_S_select_on_copyERKS8_"
 "_ZN9__gnu_cxx14__alloc_traitsISaISt6vectorIS1_IS1_IS1_IdSaIdEESaIS3_EESaIS5_EESaIS7_EEES9_E17_S_select_on_copyERKSA_"
 "_ZN9__gnu_cxx14__alloc_traitsISaISt6vectorIS1_IS1_IS1_IS1_IdSaIdEESaIS3_EESaIS5_EESaIS7_EESaIS9_EEESB_E17_S_select_on_copyERKSC_"
 "_ZN9__gnu_cxx17__normal_iteratorIPdSt6vectorIdSaIdEEEC1ERKS1_"
 "_ZN9__gnu_cxx17__normal_iteratorIPKdSt6vectorIdSaIdEEEC1ERKS2_"
 "_ZN9__gnu_cxx17__normal_iteratorIPKSt6vectorIdSaIdEES1_IS3_SaIS3_EEEC1ERKS5_"
 "_ZN9__gnu_cxx17__normal_iteratorIPKSt6vectorIdSaIdEES1_IS3_SaIS3_EEEppEv"
 "_ZN9__gnu_cxx17__normal_iteratorIPKSt6vectorIS1_IdSaIdEESaIS3_EES1_IS5_SaIS5_EEEC1ERKS7_"
 "_ZN9__gnu_cxx17__normal_iteratorIPKSt6vectorIS1_IdSaIdEESaIS3_EES1_IS5_SaIS5_EEEppEv"
 "_ZN9__gnu_cxx17__normal_iteratorIPKSt6vectorIS1_IS1_IdSaIdEESaIS3_EESaIS5_EES1_IS7_SaIS7_EEEC1ERKS9_"
 "_ZN9__gnu_cxx17__normal_iteratorIPKSt6vectorIS1_IS1_IdSaIdEESaIS3_EESaIS5_EES1_IS7_SaIS7_EEEppEv"
 "_ZN9__gnu_cxx17__normal_iteratorIPKSt6vectorIS1_IS1_IS1_IdSaIdEESaIS3_EESaIS5_EESaIS7_EES1_IS9_SaIS9_EEEC1ERKSB_"
 "_ZN9__gnu_cxx17__normal_iteratorIPKSt6vectorIS1_IS1_IS1_IdSaIdEESaIS3_EESaIS5_EESaIS7_EES1_IS9_SaIS9_EEEppEv"
 "_ZN9__gnu_cxx17__normal_iteratorIPKSt6vectorIS1_IS1_IS1_IS1_IdSaIdEESaIS3_EESaIS5_EESaIS7_EESaIS9_EES1_ISB_SaISB_EEEC1ERKSD_"
 "_ZN9__gnu_cxx17__normal_iteratorIPKSt6vectorIS1_IS1_IS1_IS1_IdSaIdEESaIS3_EESaIS5_EESaIS7_EESaIS9_EES1_ISB_SaISB_EEEppEv"
 "_ZN9__gnu_cxx17__normal_iteratorIPSt6vectorIdSaIdEES1_IS3_SaIS3_EEEC1ERKS4_"
 "_ZN9__gnu_cxx17__normal_iteratorIPSt6vectorIS1_IdSaIdEESaIS3_EES1_IS5_SaIS5_EEEC1ERKS6_"
 "_ZN9__gnu_cxx17__normal_iteratorIPSt6vectorIS1_IS1_IdSaIdEESaIS3_EESaIS5_EES1_IS7_SaIS7_EEEC1ERKS8_"
 "_ZN9__gnu_cxx6__stoaIddcJEEET0_PFT_PKT1_PPS3_DpT2_EPKcS5_PyS9_"
 "_ZN9__gnu_cxxmiIPdSt6vectorIdSaIdEEEENS_17__normal_iteratorIT_T0_E15difference_typeERKS8_SB_"
 "_ZN9__gnu_cxxmiIPSt6vectorIdSaIdEES1_IS3_SaIS3_EEEENS_17__normal_iteratorIT_T0_E15difference_typeERKSA_SD_"
 "_ZN9__gnu_cxxmiIPSt6vectorIS1_IdSaIdEESaIS3_EES1_IS5_SaIS5_EEEENS_17__normal_iteratorIT_T0_E15difference_typeERKSC_SF_"
 "_ZN9__gnu_cxxmiIPSt6vectorIS1_IS1_IdSaIdEESaIS3_EESaIS5_EES1_IS7_SaIS7_EEEENS_17__normal_iteratorIT_T0_E15difference_typeERKSE_SH_"
 "_ZN9__gnu_cxxneIPKSt6vectorIdSaIdEES1_IS3_SaIS3_EEEEbRKNS_17__normal_iteratorIT_T0_EESD_"
 "_ZN9__gnu_cxxneIPKSt6vectorIS1_IdSaIdEESaIS3_EES1_IS5_SaIS5_EEEEbRKNS_17__normal_iteratorIT_T0_EESF_"
 "_ZN9__gnu_cxxneIPKSt6vectorIS1_IS1_IdSaIdEESaIS3_EESaIS5_EES1_IS7_SaIS7_EEEEbRKNS_17__normal_iteratorIT_T0_EESH_"
 "_ZN9__gnu_cxxneIPKSt6vectorIS1_IS1_IS1_IdSaIdEESaIS3_EESaIS5_EESaIS7_EES1_IS9_SaIS9_EEEEbRKNS_17__normal_iteratorIT_T0_EESJ_"
 "_ZN9__gnu_cxxneIPKSt6vectorIS1_IS1_IS1_IS1_IdSaIdEESaIS3_EESaIS5_EESaIS7_EESaIS9_EES1_ISB_SaISB_EEEEbRKNS_17__normal_iteratorIT_T0_EESL_"
 "_ZNK10tinyformat6detail9FormatArg5toIntEv"
 "_ZNK10tinyformat6detail9FormatArg6formatERSoPKcS4_i"
 "_ZNK4Rcpp14not_compatible4whatEv"
 "_ZNK4Rcpp15PreserveStorageINS_6VectorILi19ES0_EEE5get__Ev"
 "_ZNK4Rcpp15PreserveStorageINS_6VectorILi19ES0_EEEcvP7SEXPRECEv"
 "_ZNK4Rcpp19index_out_of_bounds4whatEv"
 "_ZNK4Rcpp6ShieldIP7SEXPRECEcvS2_Ev"
 "_ZNK4Rcpp6VectorILi19ENS_15PreserveStorageEE4sizeEv"
 "_ZNK4Rcpp6VectorILi19ENS_15PreserveStorageEE6offsetERKNSt7__cxx1112basic_stringIcSt11char_traitsIcESaIcEEE"
 "_ZNK4Rcpp8internal13generic_proxyILi19ENS_15PreserveStorageEE3getEv"
 "_ZNK4Rcpp8internal13generic_proxyILi19ENS_15PreserveStorageEEcvP7SEXPRECEv"
 "_ZNK4Rcpp8internal18generic_name_proxyILi19ENS_15PreserveStorageEE3getEv"
 "_ZNK4Rcpp8internal18generic_name_proxyILi19ENS_15PreserveStorageEEcvT_IiEEv"
 "_ZNK4Rcpp9exception4whatEv"
 "_ZNK9__gnu_cxx13new_allocatorIdE11_M_max_sizeEv"
 "_ZNK9__gnu_cxx13new_allocatorIdE8max_sizeEv"
 "_ZNK9__gnu_cxx13new_allocatorISt6vectorIdSaIdEEE11_M_max_sizeEv"
 "_ZNK9__gnu_cxx13new_allocatorISt6vectorIdSaIdEEE8max_sizeEv"
 "_ZNK9__gnu_cxx13new_allocatorISt6vectorIS1_IdSaIdEESaIS3_EEE11_M_max_sizeEv"
 "_ZNK9__gnu_cxx13new_allocatorISt6vectorIS1_IdSaIdEESaIS3_EEE8max_sizeEv"
 "_ZNK9__gnu_cxx13new_allocatorISt6vectorIS1_IS1_IdSaIdEESaIS3_EESaIS5_EEE11_M_max_sizeEv"
 "_ZNK9__gnu_cxx13new_allocatorISt6vectorIS1_IS1_IdSaIdEESaIS3_EESaIS5_EEE8max_sizeEv"
 "_ZNK9__gnu_cxx13new_allocatorISt6vectorIS1_IS1_IS1_IdSaIdEESaIS3_EESaIS5_EESaIS7_EEE11_M_max_sizeEv"
 "_ZNK9__gnu_cxx13new_allocatorISt6vectorIS1_IS1_IS1_IdSaIdEESaIS3_EESaIS5_EESaIS7_EEE8max_sizeEv"
 "_ZNK9__gnu_cxx13new_allocatorISt6vectorIS1_IS1_IS1_IS1_IdSaIdEESaIS3_EESaIS5_EESaIS7_EESaIS9_EEE11_M_max_sizeEv"
 "_ZNK9__gnu_cxx13new_allocatorISt6vectorIS1_IS1_IS1_IS1_IdSaIdEESaIS3_EESaIS5_EESaIS7_EESaIS9_EEE8max_sizeEv"
 "_ZNK9__gnu_cxx13new_allocatorISt6vectorIS1_IS1_IS1_IS1_IS1_IdSaIdEESaIS3_EESaIS5_EESaIS7_EESaIS9_EESaISB_EEE11_M_max_sizeEv"
 "_ZNK9__gnu_cxx13new_allocatorISt6vectorIS1_IS1_IS1_IS1_IS1_IdSaIdEESaIS3_EESaIS5_EESaIS7_EESaIS9_EESaISB_EEE8max_sizeEv"
 "_ZNK9__gnu_cxx17__normal_iteratorIPdSt6vectorIdSaIdEEE4baseEv"
 "_ZNK9__gnu_cxx17__normal_iteratorIPKdSt6vectorIdSaIdEEE4baseEv"
 "_ZNK9__gnu_cxx17__normal_iteratorIPKSt6vectorIdSaIdEES1_IS3_SaIS3_EEE4baseEv"
 "_ZNK9__gnu_cxx17__normal_iteratorIPKSt6vectorIdSaIdEES1_IS3_SaIS3_EEEdeEv"
 "_ZNK9__gnu_cxx17__normal_iteratorIPKSt6vectorIS1_IdSaIdEESaIS3_EES1_IS5_SaIS5_EEE4baseEv"
 "_ZNK9__gnu_cxx17__normal_iteratorIPKSt6vectorIS1_IdSaIdEESaIS3_EES1_IS5_SaIS5_EEEdeEv"
 "_ZNK9__gnu_cxx17__normal_iteratorIPKSt6vectorIS1_IS1_IdSaIdEESaIS3_EESaIS5_EES1_IS7_SaIS7_EEE4baseEv"
 "_ZNK9__gnu_cxx17__normal_iteratorIPKSt6vectorIS1_IS1_IdSaIdEESaIS3_EESaIS5_EES1_IS7_SaIS7_EEEdeEv"
 "_ZNK9__gnu_cxx17__normal_iteratorIPKSt6vectorIS1_IS1_IS1_IdSaIdEESaIS3_EESaIS5_EESaIS7_EES1_IS9_SaIS9_EEE4baseEv"
 "_ZNK9__gnu_cxx17__normal_iteratorIPKSt6vectorIS1_IS1_IS1_IdSaIdEESaIS3_EESaIS5_EESaIS7_EES1_IS9_SaIS9_EEEdeEv"
 "_ZNK9__gnu_cxx17__normal_iteratorIPKSt6vectorIS1_IS1_IS1_IS1_IdSaIdEESaIS3_EESaIS5_EESaIS7_EESaIS9_EES1_ISB_SaISB_EEE4baseEv"
 "_ZNK9__gnu_cxx17__normal_iteratorIPKSt6vectorIS1_IS1_IS1_IS1_IdSaIdEESaIS3_EESaIS5_EESaIS7_EESaIS9_EES1_ISB_SaISB_EEEdeEv"
 "_ZNK9__gnu_cxx17__normal_iteratorIPSt6vectorIdSaIdEES1_IS3_SaIS3_EEE4baseEv"
 "_ZNK9__gnu_cxx17__normal_iteratorIPSt6vectorIS1_IdSaIdEESaIS3_EES1_IS5_SaIS5_EEE4baseEv"
 "_ZNK9__gnu_cxx17__normal_iteratorIPSt6vectorIS1_IS1_IdSaIdEESaIS3_EESaIS5_EES1_IS7_SaIS7_EEE4baseEv"
 "_ZNKSt12_Vector_baseIdSaIdEE19_M_get_Tp_allocatorEv"
 "_ZNKSt12_Vector_baseISt6vectorIdSaIdEESaIS2_EE19_M_get_Tp_allocatorEv"
 "_ZNKSt12_Vector_baseISt6vectorIS0_IdSaIdEESaIS2_EESaIS4_EE19_M_get_Tp_allocatorEv"
 "_ZNKSt12_Vector_baseISt6vectorIS0_IS0_IdSaIdEESaIS2_EESaIS4_EESaIS6_EE19_M_get_Tp_allocatorEv"
 "_ZNKSt12_Vector_baseISt6vectorIS0_IS0_IS0_IdSaIdEESaIS2_EESaIS4_EESaIS6_EESaIS8_EE19_M_get_Tp_allocatorEv"
 "_ZNKSt12_Vector_baseISt6vectorIS0_IS0_IS0_IS0_IdSaIdEESaIS2_EESaIS4_EESaIS6_EESaIS8_EESaISA_EE19_M_get_Tp_allocatorEv"
 "_ZNKSt13move_iteratorIPdE4baseEv"
 "_ZNKSt13move_iteratorIPSt6vectorIdSaIdEEE4baseEv"
 "_ZNKSt13move_iteratorIPSt6vectorIdSaIdEEEdeEv"
 "_ZNKSt13move_iteratorIPSt6vectorIS0_IdSaIdEESaIS2_EEE4baseEv"
 "_ZNKSt13move_iteratorIPSt6vectorIS0_IdSaIdEESaIS2_EEEdeEv"
 "_ZNKSt13move_iteratorIPSt6vectorIS0_IS0_IdSaIdEESaIS2_EESaIS4_EEE4baseEv"
 "_ZNKSt13move_iteratorIPSt6vectorIS0_IS0_IdSaIdEESaIS2_EESaIS4_EEEdeEv"
 "_ZNKSt6vectorIdSaIdEE12_M_check_lenEyPKc"
 "_ZNKSt6vectorIdSaIdEE3endEv"
 "_ZNKSt6vectorIdSaIdEE4sizeEv"
 "_ZNKSt6vectorIdSaIdEE5beginEv"
 "_ZNKSt6vectorIdSaIdEE8max_sizeEv"
 "_ZNKSt6vectorIS_IdSaIdEESaIS1_EE12_M_check_lenEyPKc"
 "_ZNKSt6vectorIS_IdSaIdEESaIS1_EE3endEv"
 "_ZNKSt6vectorIS_IdSaIdEESaIS1_EE4sizeEv"
 "_ZNKSt6vectorIS_IdSaIdEESaIS1_EE5beginEv"
 "_ZNKSt6vectorIS_IdSaIdEESaIS1_EE8max_sizeEv"
 "_ZNKSt6vectorIS_IS_IdSaIdEESaIS1_EESaIS3_EE12_M_check_lenEyPKc"
 "_ZNKSt6vectorIS_IS_IdSaIdEESaIS1_EESaIS3_EE3endEv"
 "_ZNKSt6vectorIS_IS_IdSaIdEESaIS1_EESaIS3_EE4sizeEv"
 "_ZNKSt6vectorIS_IS_IdSaIdEESaIS1_EESaIS3_EE5beginEv"
 "_ZNKSt6vectorIS_IS_IdSaIdEESaIS1_EESaIS3_EE8max_sizeEv"
 "_ZNKSt6vectorIS_IS_IS_IdSaIdEESaIS1_EESaIS3_EESaIS5_EE12_M_check_lenEyPKc"
 "_ZNKSt6vectorIS_IS_IS_IdSaIdEESaIS1_EESaIS3_EESaIS5_EE3endEv"
 "_ZNKSt6vectorIS_IS_IS_IdSaIdEESaIS1_EESaIS3_EESaIS5_EE4sizeEv"
 "_ZNKSt6vectorIS_IS_IS_IdSaIdEESaIS1_EESaIS3_EESaIS5_EE5beginEv"
 "_ZNKSt6vectorIS_IS_IS_IdSaIdEESaIS1_EESaIS3_EESaIS5_EE8max_sizeEv"
 "_ZNKSt6vectorIS_IS_IS_IS_IdSaIdEESaIS1_EESaIS3_EESaIS5_EESaIS7_EE3endEv"
 "_ZNKSt6vectorIS_IS_IS_IS_IdSaIdEESaIS1_EESaIS3_EESaIS5_EESaIS7_EE4sizeEv"
 "_ZNKSt6vectorIS_IS_IS_IS_IdSaIdEESaIS1_EESaIS3_EESaIS5_EESaIS7_EE5beginEv"
 "_ZNKSt6vectorIS_IS_IS_IS_IS_IdSaIdEESaIS1_EESaIS3_EESaIS5_EESaIS7_EESaIS9_EE3endEv"
 "_ZNKSt6vectorIS_IS_IS_IS_IS_IdSaIdEESaIS1_EESaIS3_EESaIS5_EESaIS7_EESaIS9_EE4sizeEv"
 "_ZNKSt6vectorIS_IS_IS_IS_IS_IdSaIdEESaIS1_EESaIS3_EESaIS5_EESaIS7_EESaIS9_EE5beginEv"
 "_ZNKSt8ios_base5flagsEv"
 "_ZNKSt8ios_base5widthEv"
 "_ZNKSt8ios_base9precisionEv"
 "_ZNSaIdEC1ERKS_"
 "_ZNSaIdEC1Ev"
 "_ZNSaIdEC2ERKS_"
 "_ZNSaIdEC2Ev"
 "_ZNSaIdED1Ev"
 "_ZNSaIdED2Ev"
 "_ZNSaINSt7__cxx1112basic_stringIcSt11char_traitsIcESaIcEEEEC2Ev"
 "_ZNSaINSt7__cxx1112basic_stringIcSt11char_traitsIcESaIcEEEED2Ev"
 "_ZNSaISt6vectorIdSaIdEEEC1ERKS2_"
 "_ZNSaISt6vectorIdSaIdEEEC1Ev"
 "_ZNSaISt6vectorIdSaIdEEEC2ERKS2_"
 "_ZNSaISt6vectorIdSaIdEEEC2Ev"
 "_ZNSaISt6vectorIdSaIdEEED1Ev"
 "_ZNSaISt6vectorIdSaIdEEED2Ev"
 "_ZNSaISt6vectorIS_IdSaIdEESaIS1_EEEC1ERKS4_"
 "_ZNSaISt6vectorIS_IdSaIdEESaIS1_EEEC1Ev"
 "_ZNSaISt6vectorIS_IdSaIdEESaIS1_EEEC2ERKS4_"
 "_ZNSaISt6vectorIS_IdSaIdEESaIS1_EEEC2Ev"
 "_ZNSaISt6vectorIS_IdSaIdEESaIS1_EEED1Ev"
 "_ZNSaISt6vectorIS_IdSaIdEESaIS1_EEED2Ev"
 "_ZNSaISt6vectorIS_IS_IdSaIdEESaIS1_EESaIS3_EEEC1ERKS6_"
 "_ZNSaISt6vectorIS_IS_IdSaIdEESaIS1_EESaIS3_EEEC1Ev"
 "_ZNSaISt6vectorIS_IS_IdSaIdEESaIS1_EESaIS3_EEEC2ERKS6_"
 "_ZNSaISt6vectorIS_IS_IdSaIdEESaIS1_EESaIS3_EEEC2Ev"
 "_ZNSaISt6vectorIS_IS_IdSaIdEESaIS1_EESaIS3_EEED1Ev"
 "_ZNSaISt6vectorIS_IS_IdSaIdEESaIS1_EESaIS3_EEED2Ev"
 "_ZNSaISt6vectorIS_IS_IS_IdSaIdEESaIS1_EESaIS3_EESaIS5_EEEC1ERKS8_"
 "_ZNSaISt6vectorIS_IS_IS_IdSaIdEESaIS1_EESaIS3_EESaIS5_EEEC1Ev"
 "_ZNSaISt6vectorIS_IS_IS_IdSaIdEESaIS1_EESaIS3_EESaIS5_EEEC2ERKS8_"
 "_ZNSaISt6vectorIS_IS_IS_IdSaIdEESaIS1_EESaIS3_EESaIS5_EEED1Ev"
 "_ZNSaISt6vectorIS_IS_IS_IdSaIdEESaIS1_EESaIS3_EESaIS5_EEED2Ev"
 "_ZNSaISt6vectorIS_IS_IS_IS_IdSaIdEESaIS1_EESaIS3_EESaIS5_EESaIS7_EEEC1ERKSA_"
 "_ZNSaISt6vectorIS_IS_IS_IS_IdSaIdEESaIS1_EESaIS3_EESaIS5_EESaIS7_EEEC1Ev"
 "_ZNSaISt6vectorIS_IS_IS_IS_IdSaIdEESaIS1_EESaIS3_EESaIS5_EESaIS7_EEEC2ERKSA_"
 "_ZNSaISt6vectorIS_IS_IS_IS_IdSaIdEESaIS1_EESaIS3_EESaIS5_EESaIS7_EEED1Ev"
 "_ZNSaISt6vectorIS_IS_IS_IS_IdSaIdEESaIS1_EESaIS3_EESaIS5_EESaIS7_EEED2Ev"
 "_ZNSaISt6vectorIS_IS_IS_IS_IS_IdSaIdEESaIS1_EESaIS3_EESaIS5_EESaIS7_EESaIS9_EEEC1ERKSC_"
 "_ZNSaISt6vectorIS_IS_IS_IS_IS_IdSaIdEESaIS1_EESaIS3_EESaIS5_EESaIS7_EESaIS9_EEEC1Ev"
 "_ZNSaISt6vectorIS_IS_IS_IS_IS_IdSaIdEESaIS1_EESaIS3_EESaIS5_EESaIS7_EESaIS9_EEEC2ERKSC_"
 "_ZNSaISt6vectorIS_IS_IS_IS_IS_IdSaIdEESaIS1_EESaIS3_EESaIS5_EESaIS7_EESaIS9_EEED1Ev"
 "_ZNSaISt6vectorIS_IS_IS_IS_IS_IdSaIdEESaIS1_EESaIS3_EESaIS5_EESaIS7_EESaIS9_EEED2Ev"
 "_ZNSt11__copy_moveILb0ELb1ESt26random_access_iterator_tagE8__copy_mIdEEPT_PKS3_S6_S4_"
 "_ZNSt11__copy_moveILb1ELb1ESt26random_access_iterator_tagE8__copy_mIdEEPT_PKS3_S6_S4_"
 "_ZNSt11char_traitsIcE12to_char_typeERKi"
 "_ZNSt11char_traitsIcE3eofEv"
 "_ZNSt12_Destroy_auxILb0EE9__destroyIPNSt7__cxx1112basic_stringIcSt11char_traitsIcESaIcEEEEEvT_S9_"
 "_ZNSt12_Destroy_auxILb0EE9__destroyIPSt6vectorIdSaIdEEEEvT_S6_"
 "_ZNSt12_Destroy_auxILb0EE9__destroyIPSt6vectorIS2_IdSaIdEESaIS4_EEEEvT_S8_"
 "_ZNSt12_Destroy_auxILb0EE9__destroyIPSt6vectorIS2_IS2_IdSaIdEESaIS4_EESaIS6_EEEEvT_SA_"
 "_ZNSt12_Destroy_auxILb0EE9__destroyIPSt6vectorIS2_IS2_IS2_IdSaIdEESaIS4_EESaIS6_EESaIS8_EEEEvT_SC_"
 "_ZNSt12_Destroy_auxILb0EE9__destroyIPSt6vectorIS2_IS2_IS2_IS2_IdSaIdEESaIS4_EESaIS6_EESaIS8_EESaISA_EEEEvT_SE_"
 "_ZNSt12_Destroy_auxILb0EE9__destroyIPSt6vectorIS2_IS2_IS2_IS2_IS2_IdSaIdEESaIS4_EESaIS6_EESaIS8_EESaISA_EESaISC_EEEEvT_SG_"
 "_ZNSt12_Destroy_auxILb1EE9__destroyIPdEEvT_S3_"
 "_ZNSt12_Vector_baseIdSaIdEE11_M_allocateEy"
 "_ZNSt12_Vector_baseIdSaIdEE12_Vector_implC1EOS2_"
 "_ZNSt12_Vector_baseIdSaIdEE12_Vector_implC1ERKS0_"
 "_ZNSt12_Vector_baseIdSaIdEE12_Vector_implC1Ev"
 "_ZNSt12_Vector_baseIdSaIdEE12_Vector_implD1Ev"
 "_ZNSt12_Vector_baseIdSaIdEE13_M_deallocateEPdy"
 "_ZNSt12_Vector_baseIdSaIdEE17_M_create_storageEy"
 "_ZNSt12_Vector_baseIdSaIdEE17_Vector_impl_dataC2EOS2_"
 "_ZNSt12_Vector_baseIdSaIdEE17_Vector_impl_dataC2Ev"
 "_ZNSt12_Vector_baseIdSaIdEE19_M_get_Tp_allocatorEv"
 "_ZNSt12_Vector_baseIdSaIdEEC2EOS1_"
 "_ZNSt12_Vector_baseIdSaIdEEC2Ev"
 "_ZNSt12_Vector_baseIdSaIdEEC2EyRKS0_"
 "_ZNSt12_Vector_baseIdSaIdEED2Ev"
 "_ZNSt12_Vector_baseINSt7__cxx1112basic_stringIcSt11char_traitsIcESaIcEEESaIS5_EE12_Vector_implC1Ev"
 "_ZNSt12_Vector_baseINSt7__cxx1112basic_stringIcSt11char_traitsIcESaIcEEESaIS5_EE12_Vector_implD1Ev"
 "_ZNSt12_Vector_baseINSt7__cxx1112basic_stringIcSt11char_traitsIcESaIcEEESaIS5_EE13_M_deallocateEPS5_y"
 "_ZNSt12_Vector_baseINSt7__cxx1112basic_stringIcSt11char_traitsIcESaIcEEESaIS5_EE17_Vector_impl_dataC2Ev"
 "_ZNSt12_Vector_baseINSt7__cxx1112basic_stringIcSt11char_traitsIcESaIcEEESaIS5_EE19_M_get_Tp_allocatorEv"
 "_ZNSt12_Vector_baseINSt7__cxx1112basic_stringIcSt11char_traitsIcESaIcEEESaIS5_EEC2Ev"
 "_ZNSt12_Vector_baseINSt7__cxx1112basic_stringIcSt11char_traitsIcESaIcEEESaIS5_EED2Ev"
 "_ZNSt12_Vector_baseISt6vectorIdSaIdEESaIS2_EE11_M_allocateEy"
 "_ZNSt12_Vector_baseISt6vectorIdSaIdEESaIS2_EE12_Vector_implC1EOS5_"
 "_ZNSt12_Vector_baseISt6vectorIdSaIdEESaIS2_EE12_Vector_implC1ERKS3_"
 "_ZNSt12_Vector_baseISt6vectorIdSaIdEESaIS2_EE12_Vector_implC1Ev"
 "_ZNSt12_Vector_baseISt6vectorIdSaIdEESaIS2_EE12_Vector_implD1Ev"
 "_ZNSt12_Vector_baseISt6vectorIdSaIdEESaIS2_EE13_M_deallocateEPS2_y"
 "_ZNSt12_Vector_baseISt6vectorIdSaIdEESaIS2_EE17_M_create_storageEy"
 "_ZNSt12_Vector_baseISt6vectorIdSaIdEESaIS2_EE17_Vector_impl_dataC2EOS5_"
 "_ZNSt12_Vector_baseISt6vectorIdSaIdEESaIS2_EE17_Vector_impl_dataC2Ev"
 "_ZNSt12_Vector_baseISt6vectorIdSaIdEESaIS2_EE19_M_get_Tp_allocatorEv"
 "_ZNSt12_Vector_baseISt6vectorIdSaIdEESaIS2_EEC2EOS4_"
 "_ZNSt12_Vector_baseISt6vectorIdSaIdEESaIS2_EEC2Ev"
 "_ZNSt12_Vector_baseISt6vectorIdSaIdEESaIS2_EEC2EyRKS3_"
 "_ZNSt12_Vector_baseISt6vectorIdSaIdEESaIS2_EED2Ev"
 "_ZNSt12_Vector_baseISt6vectorIS0_IdSaIdEESaIS2_EESaIS4_EE11_M_allocateEy"
 "_ZNSt12_Vector_baseISt6vectorIS0_IdSaIdEESaIS2_EESaIS4_EE12_Vector_implC1EOS7_"
 "_ZNSt12_Vector_baseISt6vectorIS0_IdSaIdEESaIS2_EESaIS4_EE12_Vector_implC1ERKS5_"
 "_ZNSt12_Vector_baseISt6vectorIS0_IdSaIdEESaIS2_EESaIS4_EE12_Vector_implC1Ev"
 "_ZNSt12_Vector_baseISt6vectorIS0_IdSaIdEESaIS2_EESaIS4_EE12_Vector_implD1Ev"
 "_ZNSt12_Vector_baseISt6vectorIS0_IdSaIdEESaIS2_EESaIS4_EE13_M_deallocateEPS4_y"
 "_ZNSt12_Vector_baseISt6vectorIS0_IdSaIdEESaIS2_EESaIS4_EE17_M_create_storageEy"
 "_ZNSt12_Vector_baseISt6vectorIS0_IdSaIdEESaIS2_EESaIS4_EE17_Vector_impl_dataC2EOS7_"
 "_ZNSt12_Vector_baseISt6vectorIS0_IdSaIdEESaIS2_EESaIS4_EE17_Vector_impl_dataC2Ev"
 "_ZNSt12_Vector_baseISt6vectorIS0_IdSaIdEESaIS2_EESaIS4_EE19_M_get_Tp_allocatorEv"
 "_ZNSt12_Vector_baseISt6vectorIS0_IdSaIdEESaIS2_EESaIS4_EEC2EOS6_"
 "_ZNSt12_Vector_baseISt6vectorIS0_IdSaIdEESaIS2_EESaIS4_EEC2Ev"
 "_ZNSt12_Vector_baseISt6vectorIS0_IdSaIdEESaIS2_EESaIS4_EEC2EyRKS5_"
 "_ZNSt12_Vector_baseISt6vectorIS0_IdSaIdEESaIS2_EESaIS4_EED2Ev"
 "_ZNSt12_Vector_baseISt6vectorIS0_IS0_IdSaIdEESaIS2_EESaIS4_EESaIS6_EE11_M_allocateEy"
 "_ZNSt12_Vector_baseISt6vectorIS0_IS0_IdSaIdEESaIS2_EESaIS4_EESaIS6_EE12_Vector_implC1ERKS7_"
 "_ZNSt12_Vector_baseISt6vectorIS0_IS0_IdSaIdEESaIS2_EESaIS4_EESaIS6_EE12_Vector_implC1Ev"
 "_ZNSt12_Vector_baseISt6vectorIS0_IS0_IdSaIdEESaIS2_EESaIS4_EESaIS6_EE12_Vector_implD1Ev"
 "_ZNSt12_Vector_baseISt6vectorIS0_IS0_IdSaIdEESaIS2_EESaIS4_EESaIS6_EE13_M_deallocateEPS6_y"
 "_ZNSt12_Vector_baseISt6vectorIS0_IS0_IdSaIdEESaIS2_EESaIS4_EESaIS6_EE17_M_create_storageEy"
 "_ZNSt12_Vector_baseISt6vectorIS0_IS0_IdSaIdEESaIS2_EESaIS4_EESaIS6_EE17_Vector_impl_dataC2Ev"
 "_ZNSt12_Vector_baseISt6vectorIS0_IS0_IdSaIdEESaIS2_EESaIS4_EESaIS6_EE19_M_get_Tp_allocatorEv"
 "_ZNSt12_Vector_baseISt6vectorIS0_IS0_IdSaIdEESaIS2_EESaIS4_EESaIS6_EEC2Ev"
 "_ZNSt12_Vector_baseISt6vectorIS0_IS0_IdSaIdEESaIS2_EESaIS4_EESaIS6_EEC2EyRKS7_"
 "_ZNSt12_Vector_baseISt6vectorIS0_IS0_IdSaIdEESaIS2_EESaIS4_EESaIS6_EED2Ev"
 "_ZNSt12_Vector_baseISt6vectorIS0_IS0_IS0_IdSaIdEESaIS2_EESaIS4_EESaIS6_EESaIS8_EE11_M_allocateEy"
 "_ZNSt12_Vector_baseISt6vectorIS0_IS0_IS0_IdSaIdEESaIS2_EESaIS4_EESaIS6_EESaIS8_EE12_Vector_implC1ERKS9_"
 "_ZNSt12_Vector_baseISt6vectorIS0_IS0_IS0_IdSaIdEESaIS2_EESaIS4_EESaIS6_EESaIS8_EE12_Vector_implD1Ev"
 "_ZNSt12_Vector_baseISt6vectorIS0_IS0_IS0_IdSaIdEESaIS2_EESaIS4_EESaIS6_EESaIS8_EE13_M_deallocateEPS8_y"
 "_ZNSt12_Vector_baseISt6vectorIS0_IS0_IS0_IdSaIdEESaIS2_EESaIS4_EESaIS6_EESaIS8_EE17_M_create_storageEy"
 "_ZNSt12_Vector_baseISt6vectorIS0_IS0_IS0_IdSaIdEESaIS2_EESaIS4_EESaIS6_EESaIS8_EE17_Vector_impl_dataC2Ev"
 "_ZNSt12_Vector_baseISt6vectorIS0_IS0_IS0_IdSaIdEESaIS2_EESaIS4_EESaIS6_EESaIS8_EE19_M_get_Tp_allocatorEv"
 "_ZNSt12_Vector_baseISt6vectorIS0_IS0_IS0_IdSaIdEESaIS2_EESaIS4_EESaIS6_EESaIS8_EEC2EyRKS9_"
 "_ZNSt12_Vector_baseISt6vectorIS0_IS0_IS0_IdSaIdEESaIS2_EESaIS4_EESaIS6_EESaIS8_EED2Ev"
 "_ZNSt12_Vector_baseISt6vectorIS0_IS0_IS0_IS0_IdSaIdEESaIS2_EESaIS4_EESaIS6_EESaIS8_EESaISA_EE11_M_allocateEy"
 "_ZNSt12_Vector_baseISt6vectorIS0_IS0_IS0_IS0_IdSaIdEESaIS2_EESaIS4_EESaIS6_EESaIS8_EESaISA_EE12_Vector_implC1ERKSB_"
 "_ZNSt12_Vector_baseISt6vectorIS0_IS0_IS0_IS0_IdSaIdEESaIS2_EESaIS4_EESaIS6_EESaIS8_EESaISA_EE12_Vector_implD1Ev"
 "_ZNSt12_Vector_baseISt6vectorIS0_IS0_IS0_IS0_IdSaIdEESaIS2_EESaIS4_EESaIS6_EESaIS8_EESaISA_EE13_M_deallocateEPSA_y"
 "_ZNSt12_Vector_baseISt6vectorIS0_IS0_IS0_IS0_IdSaIdEESaIS2_EESaIS4_EESaIS6_EESaIS8_EESaISA_EE17_M_create_storageEy"
 "_ZNSt12_Vector_baseISt6vectorIS0_IS0_IS0_IS0_IdSaIdEESaIS2_EESaIS4_EESaIS6_EESaIS8_EESaISA_EE17_Vector_impl_dataC2Ev"
 "_ZNSt12_Vector_baseISt6vectorIS0_IS0_IS0_IS0_IdSaIdEESaIS2_EESaIS4_EESaIS6_EESaIS8_EESaISA_EE19_M_get_Tp_allocatorEv"
 "_ZNSt12_Vector_baseISt6vectorIS0_IS0_IS0_IS0_IdSaIdEESaIS2_EESaIS4_EESaIS6_EESaIS8_EESaISA_EEC2EyRKSB_"
 "_ZNSt12_Vector_baseISt6vectorIS0_IS0_IS0_IS0_IdSaIdEESaIS2_EESaIS4_EESaIS6_EESaIS8_EESaISA_EED2Ev"
 "_ZNSt12_Vector_baseISt6vectorIS0_IS0_IS0_IS0_IS0_IdSaIdEESaIS2_EESaIS4_EESaIS6_EESaIS8_EESaISA_EESaISC_EE11_M_allocateEy"
 "_ZNSt12_Vector_baseISt6vectorIS0_IS0_IS0_IS0_IS0_IdSaIdEESaIS2_EESaIS4_EESaIS6_EESaIS8_EESaISA_EESaISC_EE12_Vector_implC1ERKSD_"
 "_ZNSt12_Vector_baseISt6vectorIS0_IS0_IS0_IS0_IS0_IdSaIdEESaIS2_EESaIS4_EESaIS6_EESaIS8_EESaISA_EESaISC_EE12_Vector_implD1Ev"
 "_ZNSt12_Vector_baseISt6vectorIS0_IS0_IS0_IS0_IS0_IdSaIdEESaIS2_EESaIS4_EESaIS6_EESaIS8_EESaISA_EESaISC_EE13_M_deallocateEPSC_y"
 "_ZNSt12_Vector_baseISt6vectorIS0_IS0_IS0_IS0_IS0_IdSaIdEESaIS2_EESaIS4_EESaIS6_EESaIS8_EESaISA_EESaISC_EE17_M_create_storageEy"
 "_ZNSt12_Vector_baseISt6vectorIS0_IS0_IS0_IS0_IS0_IdSaIdEESaIS2_EESaIS4_EESaIS6_EESaIS8_EESaISA_EESaISC_EE17_Vector_impl_dataC2Ev"
 "_ZNSt12_Vector_baseISt6vectorIS0_IS0_IS0_IS0_IS0_IdSaIdEESaIS2_EESaIS4_EESaIS6_EESaIS8_EESaISA_EESaISC_EE19_M_get_Tp_allocatorEv"
 "_ZNSt12_Vector_baseISt6vectorIS0_IS0_IS0_IS0_IS0_IdSaIdEESaIS2_EESaIS4_EESaIS6_EESaIS8_EESaISA_EESaISC_EEC2EyRKSD_"
 "_ZNSt12_Vector_baseISt6vectorIS0_IS0_IS0_IS0_IS0_IdSaIdEESaIS2_EESaIS4_EESaIS6_EESaIS8_EESaISA_EESaISC_EED2Ev"
 "_ZNSt13move_iteratorIPdEC1ES0_"
 "_ZNSt13move_iteratorIPSt6vectorIdSaIdEEEC1ES3_"
 "_ZNSt13move_iteratorIPSt6vectorIdSaIdEEEppEv"
 "_ZNSt13move_iteratorIPSt6vectorIS0_IdSaIdEESaIS2_EEEC1ES5_"
 "_ZNSt13move_iteratorIPSt6vectorIS0_IdSaIdEESaIS2_EEEppEv"
 "_ZNSt13move_iteratorIPSt6vectorIS0_IS0_IdSaIdEESaIS2_EESaIS4_EEEC1ES7_"
 "_ZNSt13move_iteratorIPSt6vectorIS0_IS0_IdSaIdEESaIS2_EESaIS4_EEEppEv"
 "_ZNSt16allocator_traitsISaIdEE10deallocateERS0_Pdy"
 "_ZNSt16allocator_traitsISaIdEE37select_on_container_copy_constructionERKS0_"
 "_ZNSt16allocator_traitsISaIdEE7destroyIdEEvRS0_PT_"
 "_ZNSt16allocator_traitsISaIdEE8allocateERS0_y"
 "_ZNSt16allocator_traitsISaIdEE8max_sizeERKS0_"
 "_ZNSt16allocator_traitsISaIdEE9constructIdJdEEEvRS0_PT_DpOT0_"
 "_ZNSt16allocator_traitsISaIdEE9constructIdJRKdEEEvRS0_PT_DpOT0_"
 "_ZNSt16allocator_traitsISaINSt7__cxx1112basic_stringIcSt11char_traitsIcESaIcEEEEE10deallocateERS6_PS5_y"
 "_ZNSt16allocator_traitsISaISt6vectorIdSaIdEEEE10deallocateERS3_PS2_y"
 "_ZNSt16allocator_traitsISaISt6vectorIdSaIdEEEE37select_on_container_copy_constructionERKS3_"
 "_ZNSt16allocator_traitsISaISt6vectorIdSaIdEEEE7destroyIS2_EEvRS3_PT_"
 "_ZNSt16allocator_traitsISaISt6vectorIdSaIdEEEE8allocateERS3_y"
 "_ZNSt16allocator_traitsISaISt6vectorIdSaIdEEEE8max_sizeERKS3_"
 "_ZNSt16allocator_traitsISaISt6vectorIdSaIdEEEE9constructIS2_JRKS2_EEEvRS3_PT_DpOT0_"
 "_ZNSt16allocator_traitsISaISt6vectorIdSaIdEEEE9constructIS2_JS2_EEEvRS3_PT_DpOT0_"
 "_ZNSt16allocator_traitsISaISt6vectorIS0_IdSaIdEESaIS2_EEEE10deallocateERS5_PS4_y"
 "_ZNSt16allocator_traitsISaISt6vectorIS0_IdSaIdEESaIS2_EEEE37select_on_container_copy_constructionERKS5_"
 "_ZNSt16allocator_traitsISaISt6vectorIS0_IdSaIdEESaIS2_EEEE7destroyIS4_EEvRS5_PT_"
 "_ZNSt16allocator_traitsISaISt6vectorIS0_IdSaIdEESaIS2_EEEE8allocateERS5_y"
 "_ZNSt16allocator_traitsISaISt6vectorIS0_IdSaIdEESaIS2_EEEE8max_sizeERKS5_"
 "_ZNSt16allocator_traitsISaISt6vectorIS0_IdSaIdEESaIS2_EEEE9constructIS4_JS4_EEEvRS5_PT_DpOT0_"
 "_ZNSt16allocator_traitsISaISt6vectorIS0_IS0_IdSaIdEESaIS2_EESaIS4_EEEE10deallocateERS7_PS6_y"
 "_ZNSt16allocator_traitsISaISt6vectorIS0_IS0_IdSaIdEESaIS2_EESaIS4_EEEE37select_on_container_copy_constructionERKS7_"
 "_ZNSt16allocator_traitsISaISt6vectorIS0_IS0_IdSaIdEESaIS2_EESaIS4_EEEE7destroyIS6_EEvRS7_PT_"
 "_ZNSt16allocator_traitsISaISt6vectorIS0_IS0_IdSaIdEESaIS2_EESaIS4_EEEE8allocateERS7_y"
 "_ZNSt16allocator_traitsISaISt6vectorIS0_IS0_IdSaIdEESaIS2_EESaIS4_EEEE8max_sizeERKS7_"
 "_ZNSt16allocator_traitsISaISt6vectorIS0_IS0_IdSaIdEESaIS2_EESaIS4_EEEE9constructIS6_JS6_EEEvRS7_PT_DpOT0_"
 "_ZNSt16allocator_traitsISaISt6vectorIS0_IS0_IS0_IdSaIdEESaIS2_EESaIS4_EESaIS6_EEEE10deallocateERS9_PS8_y"
 "_ZNSt16allocator_traitsISaISt6vectorIS0_IS0_IS0_IdSaIdEESaIS2_EESaIS4_EESaIS6_EEEE37select_on_container_copy_constructionERKS9_"
 "_ZNSt16allocator_traitsISaISt6vectorIS0_IS0_IS0_IdSaIdEESaIS2_EESaIS4_EESaIS6_EEEE8allocateERS9_y"
 "_ZNSt16allocator_traitsISaISt6vectorIS0_IS0_IS0_IdSaIdEESaIS2_EESaIS4_EESaIS6_EEEE8max_sizeERKS9_"
 "_ZNSt16allocator_traitsISaISt6vectorIS0_IS0_IS0_IS0_IdSaIdEESaIS2_EESaIS4_EESaIS6_EESaIS8_EEEE10deallocateERSB_PSA_y"
 "_ZNSt16allocator_traitsISaISt6vectorIS0_IS0_IS0_IS0_IdSaIdEESaIS2_EESaIS4_EESaIS6_EESaIS8_EEEE37select_on_container_copy_constructionERKSB_"
 "_ZNSt16allocator_traitsISaISt6vectorIS0_IS0_IS0_IS0_IdSaIdEESaIS2_EESaIS4_EESaIS6_EESaIS8_EEEE8allocateERSB_y"
 "_ZNSt16allocator_traitsISaISt6vectorIS0_IS0_IS0_IS0_IdSaIdEESaIS2_EESaIS4_EESaIS6_EESaIS8_EEEE8max_sizeERKSB_"
 "_ZNSt16allocator_traitsISaISt6vectorIS0_IS0_IS0_IS0_IS0_IdSaIdEESaIS2_EESaIS4_EESaIS6_EESaIS8_EESaISA_EEEE10deallocateERSD_PSC_y"
 "_ZNSt16allocator_traitsISaISt6vectorIS0_IS0_IS0_IS0_IS0_IdSaIdEESaIS2_EESaIS4_EESaIS6_EESaIS8_EESaISA_EEEE8allocateERSD_y"
 "_ZNSt16allocator_traitsISaISt6vectorIS0_IS0_IS0_IS0_IS0_IdSaIdEESaIS2_EESaIS4_EESaIS6_EESaIS8_EESaISA_EEEE8max_sizeERKSD_"
 "_ZNSt20__uninitialized_copyILb0EE13__uninit_copyIN9__gnu_cxx17__normal_iteratorIPKSt6vectorIdSaIdEES4_IS6_SaIS6_EEEEPS6_EET0_T_SE_SD_"
 "_ZNSt20__uninitialized_copyILb0EE13__uninit_copyIN9__gnu_cxx17__normal_iteratorIPKSt6vectorIS4_IdSaIdEESaIS6_EES4_IS8_SaIS8_EEEEPS8_EET0_T_SG_SF_"
 "_ZNSt20__uninitialized_copyILb0EE13__uninit_copyIN9__gnu_cxx17__normal_iteratorIPKSt6vectorIS4_IS4_IdSaIdEESaIS6_EESaIS8_EES4_ISA_SaISA_EEEEPSA_EET0_T_SI_SH_"
 "_ZNSt20__uninitialized_copyILb0EE13__uninit_copyIN9__gnu_cxx17__normal_iteratorIPKSt6vectorIS4_IS4_IS4_IdSaIdEESaIS6_EESaIS8_EESaISA_EES4_ISC_SaISC_EEEEPSC_EET0_T_SK_SJ_"
 "_ZNSt20__uninitialized_copyILb0EE13__uninit_copyIN9__gnu_cxx17__normal_iteratorIPKSt6vectorIS4_IS4_IS4_IS4_IdSaIdEESaIS6_EESaIS8_EESaISA_EESaISC_EES4_ISE_SaISE_EEEEPSE_EET0_T_SM_SL_"
 "_ZNSt20__uninitialized_copyILb0EE13__uninit_copyISt13move_iteratorIPSt6vectorIdSaIdEEES6_EET0_T_S9_S8_"
 "_ZNSt20__uninitialized_copyILb0EE13__uninit_copyISt13move_iteratorIPSt6vectorIS3_IdSaIdEESaIS5_EEES8_EET0_T_SB_SA_"
 "_ZNSt20__uninitialized_copyILb0EE13__uninit_copyISt13move_iteratorIPSt6vectorIS3_IS3_IdSaIdEESaIS5_EESaIS7_EEESA_EET0_T_SD_SC_"
 "_ZNSt20__uninitialized_copyILb1EE13__uninit_copyIN9__gnu_cxx17__normal_iteratorIPKdSt6vectorIdSaIdEEEEPdEET0_T_SC_SB_"
 "_ZNSt20__uninitialized_copyILb1EE13__uninit_copyISt13move_iteratorIPdES3_EET0_T_S6_S5_"
 "_ZNSt22__uninitialized_fill_nILb0EE15__uninit_fill_nIPSt6vectorIdSaIdEEyS4_EET_S6_T0_RKT1_"
 "_ZNSt22__uninitialized_fill_nILb0EE15__uninit_fill_nIPSt6vectorIS2_IdSaIdEESaIS4_EEyS6_EET_S8_T0_RKT1_"
 "_ZNSt22__uninitialized_fill_nILb0EE15__uninit_fill_nIPSt6vectorIS2_IS2_IdSaIdEESaIS4_EESaIS6_EEyS8_EET_SA_T0_RKT1_"
 "_ZNSt22__uninitialized_fill_nILb0EE15__uninit_fill_nIPSt6vectorIS2_IS2_IS2_IdSaIdEESaIS4_EESaIS6_EESaIS8_EEySA_EET_SC_T0_RKT1_"
 "_ZNSt22__uninitialized_fill_nILb0EE15__uninit_fill_nIPSt6vectorIS2_IS2_IS2_IS2_IdSaIdEESaIS4_EESaIS6_EESaIS8_EESaISA_EEySC_EET_SE_T0_RKT1_"
 "_ZNSt22__uninitialized_fill_nILb0EE15__uninit_fill_nIPSt6vectorIS2_IS2_IS2_IS2_IS2_IdSaIdEESaIS4_EESaIS6_EESaIS8_EESaISA_EESaISC_EEySE_EET_SG_T0_RKT1_"
 "_ZNSt22__uninitialized_fill_nILb1EE15__uninit_fill_nIPdydEET_S3_T0_RKT1_"
 "_ZNSt6vectorIdSaIdEE11_S_max_sizeERKS0_"
 "_ZNSt6vectorIdSaIdEE11_S_relocateEPdS2_S2_RS0_"
 "_ZNSt6vectorIdSaIdEE12emplace_backIJdEEEvDpOT_"
 "_ZNSt6vectorIdSaIdEE14_S_do_relocateEPdS2_S2_RS0_St17integral_constantIbLb1EE"
 "_ZNSt6vectorIdSaIdEE15_S_use_relocateEv"
 "_ZNSt6vectorIdSaIdEE17_M_realloc_insertIJdEEEvN9__gnu_cxx17__normal_iteratorIPdS1_EEDpOT_"
 "_ZNSt6vectorIdSaIdEE17_M_realloc_insertIJRKdEEEvN9__gnu_cxx17__normal_iteratorIPdS1_EEDpOT_"
 "_ZNSt6vectorIdSaIdEE17_S_check_init_lenEyRKS0_"
 "_ZNSt6vectorIdSaIdEE18_M_fill_initializeEyRKd"
 "_ZNSt6vectorIdSaIdEE19_S_nothrow_relocateESt17integral_constantIbLb1EE"
 "_ZNSt6vectorIdSaIdEE3endEv"
 "_ZNSt6vectorIdSaIdEE5beginEv"
 "_ZNSt6vectorIdSaIdEE9push_backEOd"
 "_ZNSt6vectorIdSaIdEE9push_backERKd"
 "_ZNSt6vectorIdSaIdEEC1EOS1_"
 "_ZNSt6vectorIdSaIdEEC1ERKS1_"
 "_ZNSt6vectorIdSaIdEEC1Ev"
 "_ZNSt6vectorIdSaIdEEC1EyRKdRKS0_"
 "_ZNSt6vectorIdSaIdEED1Ev"
 "_ZNSt6vectorIdSaIdEEixEy"
 "_ZNSt6vectorINSt7__cxx1112basic_stringIcSt11char_traitsIcESaIcEEESaIS5_EEC1Ev"
 "_ZNSt6vectorINSt7__cxx1112basic_stringIcSt11char_traitsIcESaIcEEESaIS5_EED1Ev"
 "_ZNSt6vectorIS_IdSaIdEESaIS1_EE11_S_max_sizeERKS2_"
 "_ZNSt6vectorIS_IdSaIdEESaIS1_EE11_S_relocateEPS1_S4_S4_RS2_"
 "_ZNSt6vectorIS_IdSaIdEESaIS1_EE12emplace_backIJS1_EEEvDpOT_"
 "_ZNSt6vectorIS_IdSaIdEESaIS1_EE14_S_do_relocateEPS1_S4_S4_RS2_St17integral_constantIbLb1EE"
 "_ZNSt6vectorIS_IdSaIdEESaIS1_EE15_S_use_relocateEv"
 "_ZNSt6vectorIS_IdSaIdEESaIS1_EE17_M_realloc_insertIJRKS1_EEEvN9__gnu_cxx17__normal_iteratorIPS1_S3_EEDpOT_"
 "_ZNSt6vectorIS_IdSaIdEESaIS1_EE17_M_realloc_insertIJS1_EEEvN9__gnu_cxx17__normal_iteratorIPS1_S3_EEDpOT_"
 "_ZNSt6vectorIS_IdSaIdEESaIS1_EE17_S_check_init_lenEyRKS2_"
 "_ZNSt6vectorIS_IdSaIdEESaIS1_EE18_M_fill_initializeEyRKS1_"
 "_ZNSt6vectorIS_IdSaIdEESaIS1_EE19_S_nothrow_relocateESt17integral_constantIbLb1EE"
 "_ZNSt6vectorIS_IdSaIdEESaIS1_EE3endEv"
 "_ZNSt6vectorIS_IdSaIdEESaIS1_EE5beginEv"
 "_ZNSt6vectorIS_IdSaIdEESaIS1_EE9push_backEOS1_"
 "_ZNSt6vectorIS_IdSaIdEESaIS1_EE9push_backERKS1_"
 "_ZNSt6vectorIS_IdSaIdEESaIS1_EEC1EOS3_"
 "_ZNSt6vectorIS_IdSaIdEESaIS1_EEC1ERKS3_"
 "_ZNSt6vectorIS_IdSaIdEESaIS1_EEC1Ev"
 "_ZNSt6vectorIS_IdSaIdEESaIS1_EEC1EyRKS1_RKS2_"
 "_ZNSt6vectorIS_IdSaIdEESaIS1_EED1Ev"
 "_ZNSt6vectorIS_IdSaIdEESaIS1_EEixEy"
 "_ZNSt6vectorIS_IS_IdSaIdEESaIS1_EESaIS3_EE11_S_max_sizeERKS4_"
 "_ZNSt6vectorIS_IS_IdSaIdEESaIS1_EESaIS3_EE11_S_relocateEPS3_S6_S6_RS4_"
 "_ZNSt6vectorIS_IS_IdSaIdEESaIS1_EESaIS3_EE12emplace_backIJS3_EEEvDpOT_"
 "_ZNSt6vectorIS_IS_IdSaIdEESaIS1_EESaIS3_EE14_S_do_relocateEPS3_S6_S6_RS4_St17integral_constantIbLb1EE"
 "_ZNSt6vectorIS_IS_IdSaIdEESaIS1_EESaIS3_EE15_S_use_relocateEv"
 "_ZNSt6vectorIS_IS_IdSaIdEESaIS1_EESaIS3_EE17_M_realloc_insertIJS3_EEEvN9__gnu_cxx17__normal_iteratorIPS3_S5_EEDpOT_"
 "_ZNSt6vectorIS_IS_IdSaIdEESaIS1_EESaIS3_EE17_S_check_init_lenEyRKS4_"
 "_ZNSt6vectorIS_IS_IdSaIdEESaIS1_EESaIS3_EE18_M_fill_initializeEyRKS3_"
 "_ZNSt6vectorIS_IS_IdSaIdEESaIS1_EESaIS3_EE19_S_nothrow_relocateESt17integral_constantIbLb1EE"
 "_ZNSt6vectorIS_IS_IdSaIdEESaIS1_EESaIS3_EE3endEv"
 "_ZNSt6vectorIS_IS_IdSaIdEESaIS1_EESaIS3_EE5beginEv"
 "_ZNSt6vectorIS_IS_IdSaIdEESaIS1_EESaIS3_EE9push_backEOS3_"
 "_ZNSt6vectorIS_IS_IdSaIdEESaIS1_EESaIS3_EEC1EOS5_"
 "_ZNSt6vectorIS_IS_IdSaIdEESaIS1_EESaIS3_EEC1ERKS5_"
 "_ZNSt6vectorIS_IS_IdSaIdEESaIS1_EESaIS3_EEC1Ev"
 "_ZNSt6vectorIS_IS_IdSaIdEESaIS1_EESaIS3_EEC1EyRKS3_RKS4_"
 "_ZNSt6vectorIS_IS_IdSaIdEESaIS1_EESaIS3_EED1Ev"
 "_ZNSt6vectorIS_IS_IdSaIdEESaIS1_EESaIS3_EEixEy"
 "_ZNSt6vectorIS_IS_IS_IdSaIdEESaIS1_EESaIS3_EESaIS5_EE11_S_max_sizeERKS6_"
 "_ZNSt6vectorIS_IS_IS_IdSaIdEESaIS1_EESaIS3_EESaIS5_EE11_S_relocateEPS5_S8_S8_RS6_"
 "_ZNSt6vectorIS_IS_IS_IdSaIdEESaIS1_EESaIS3_EESaIS5_EE12emplace_backIJS5_EEEvDpOT_"
 "_ZNSt6vectorIS_IS_IS_IdSaIdEESaIS1_EESaIS3_EESaIS5_EE14_S_do_relocateEPS5_S8_S8_RS6_St17integral_constantIbLb1EE"
 "_ZNSt6vectorIS_IS_IS_IdSaIdEESaIS1_EESaIS3_EESaIS5_EE15_S_use_relocateEv"
 "_ZNSt6vectorIS_IS_IS_IdSaIdEESaIS1_EESaIS3_EESaIS5_EE17_M_realloc_insertIJS5_EEEvN9__gnu_cxx17__normal_iteratorIPS5_S7_EEDpOT_"
 "_ZNSt6vectorIS_IS_IS_IdSaIdEESaIS1_EESaIS3_EESaIS5_EE17_S_check_init_lenEyRKS6_"
 "_ZNSt6vectorIS_IS_IS_IdSaIdEESaIS1_EESaIS3_EESaIS5_EE18_M_fill_initializeEyRKS5_"
 "_ZNSt6vectorIS_IS_IS_IdSaIdEESaIS1_EESaIS3_EESaIS5_EE19_S_nothrow_relocateESt17integral_constantIbLb1EE"
 "_ZNSt6vectorIS_IS_IS_IdSaIdEESaIS1_EESaIS3_EESaIS5_EE3endEv"
 "_ZNSt6vectorIS_IS_IS_IdSaIdEESaIS1_EESaIS3_EESaIS5_EE5beginEv"
 "_ZNSt6vectorIS_IS_IS_IdSaIdEESaIS1_EESaIS3_EESaIS5_EE9push_backEOS5_"
 "_ZNSt6vectorIS_IS_IS_IdSaIdEESaIS1_EESaIS3_EESaIS5_EEC1ERKS7_"
 "_ZNSt6vectorIS_IS_IS_IdSaIdEESaIS1_EESaIS3_EESaIS5_EEC1Ev"
 "_ZNSt6vectorIS_IS_IS_IdSaIdEESaIS1_EESaIS3_EESaIS5_EEC1EyRKS5_RKS6_"
 "_ZNSt6vectorIS_IS_IS_IdSaIdEESaIS1_EESaIS3_EESaIS5_EED1Ev"
 "_ZNSt6vectorIS_IS_IS_IdSaIdEESaIS1_EESaIS3_EESaIS5_EEixEy"
 "_ZNSt6vectorIS_IS_IS_IS_IdSaIdEESaIS1_EESaIS3_EESaIS5_EESaIS7_EE11_S_max_sizeERKS8_"
 "_ZNSt6vectorIS_IS_IS_IS_IdSaIdEESaIS1_EESaIS3_EESaIS5_EESaIS7_EE17_S_check_init_lenEyRKS8_"
 "_ZNSt6vectorIS_IS_IS_IS_IdSaIdEESaIS1_EESaIS3_EESaIS5_EESaIS7_EE18_M_fill_initializeEyRKS7_"
 "_ZNSt6vectorIS_IS_IS_IS_IdSaIdEESaIS1_EESaIS3_EESaIS5_EESaIS7_EEC1ERKS9_"
 "_ZNSt6vectorIS_IS_IS_IS_IdSaIdEESaIS1_EESaIS3_EESaIS5_EESaIS7_EEC1EyRKS7_RKS8_"
 "_ZNSt6vectorIS_IS_IS_IS_IdSaIdEESaIS1_EESaIS3_EESaIS5_EESaIS7_EED1Ev"
 "_ZNSt6vectorIS_IS_IS_IS_IdSaIdEESaIS1_EESaIS3_EESaIS5_EESaIS7_EEixEy"
 "_ZNSt6vectorIS_IS_IS_IS_IS_IdSaIdEESaIS1_EESaIS3_EESaIS5_EESaIS7_EESaIS9_EE11_S_max_sizeERKSA_"
 "_ZNSt6vectorIS_IS_IS_IS_IS_IdSaIdEESaIS1_EESaIS3_EESaIS5_EESaIS7_EESaIS9_EE17_S_check_init_lenEyRKSA_"
 "_ZNSt6vectorIS_IS_IS_IS_IS_IdSaIdEESaIS1_EESaIS3_EESaIS5_EESaIS7_EESaIS9_EE18_M_fill_initializeEyRKS9_"
 "_ZNSt6vectorIS_IS_IS_IS_IS_IdSaIdEESaIS1_EESaIS3_EESaIS5_EESaIS7_EESaIS9_EEC1ERKSB_"
 "_ZNSt6vectorIS_IS_IS_IS_IS_IdSaIdEESaIS1_EESaIS3_EESaIS5_EESaIS7_EESaIS9_EEC1EyRKS9_RKSA_"
 "_ZNSt6vectorIS_IS_IS_IS_IS_IdSaIdEESaIS1_EESaIS3_EESaIS5_EESaIS7_EESaIS9_EED1Ev"
 "_ZNSt6vectorIS_IS_IS_IS_IS_IdSaIdEESaIS1_EESaIS3_EESaIS5_EESaIS7_EESaIS9_EEixEy"
 "_ZNSt6vectorIS_IS_IS_IS_IS_IS_IdSaIdEESaIS1_EESaIS3_EESaIS5_EESaIS7_EESaIS9_EESaISB_EE11_S_max_sizeERKSC_"
 "_ZNSt6vectorIS_IS_IS_IS_IS_IS_IdSaIdEESaIS1_EESaIS3_EESaIS5_EESaIS7_EESaIS9_EESaISB_EE17_S_check_init_lenEyRKSC_"
 "_ZNSt6vectorIS_IS_IS_IS_IS_IS_IdSaIdEESaIS1_EESaIS3_EESaIS5_EESaIS7_EESaIS9_EESaISB_EE18_M_fill_initializeEyRKSB_"
 "_ZNSt6vectorIS_IS_IS_IS_IS_IS_IdSaIdEESaIS1_EESaIS3_EESaIS5_EESaIS7_EESaIS9_EESaISB_EEC1EyRKSB_RKSC_"
 "_ZNSt6vectorIS_IS_IS_IS_IS_IS_IdSaIdEESaIS1_EESaIS3_EESaIS5_EESaIS7_EESaIS9_EESaISB_EED1Ev"
 "_ZNSt6vectorIS_IS_IS_IS_IS_IS_IdSaIdEESaIS1_EESaIS3_EESaIS5_EESaIS7_EESaIS9_EESaISB_EEixEy"
 "_ZNSt7__cxx114stodERKNS_12basic_stringIcSt11char_traitsIcESaIcEEEPy"
 "_ZNSt8ios_base4setfESt13_Ios_Fmtflags"
 "_ZNSt8ios_base4setfESt13_Ios_FmtflagsS0_"
 "_ZNSt8ios_base5flagsESt13_Ios_Fmtflags"
 "_ZNSt8ios_base5widthEx"
 "_ZNSt8ios_base6unsetfESt13_Ios_Fmtflags"
 "_ZNSt8ios_base9precisionEx"
 "_ZNSt9exceptionC2Ev"
 "_ZnwyPv"
 "_ZSt10__fill_n_aIPdydET_S1_T0_RKT1_St26random_access_iterator_tag"
 "_ZSt10_ConstructISt6vectorIdSaIdEEJRKS2_EEvPT_DpOT0_"
 "_ZSt10_ConstructISt6vectorIdSaIdEEJS2_EEvPT_DpOT0_"
 "_ZSt10_ConstructISt6vectorIS0_IdSaIdEESaIS2_EEJRKS4_EEvPT_DpOT0_"
 "_ZSt10_ConstructISt6vectorIS0_IdSaIdEESaIS2_EEJS4_EEvPT_DpOT0_"
 "_ZSt10_ConstructISt6vectorIS0_IS0_IdSaIdEESaIS2_EESaIS4_EEJRKS6_EEvPT_DpOT0_"
 "_ZSt10_ConstructISt6vectorIS0_IS0_IdSaIdEESaIS2_EESaIS4_EEJS6_EEvPT_DpOT0_"
 "_ZSt10_ConstructISt6vectorIS0_IS0_IS0_IdSaIdEESaIS2_EESaIS4_EESaIS6_EEJRKS8_EEvPT_DpOT0_"
 "_ZSt10_ConstructISt6vectorIS0_IS0_IS0_IS0_IdSaIdEESaIS2_EESaIS4_EESaIS6_EESaIS8_EEJRKSA_EEvPT_DpOT0_"
 "_ZSt10_ConstructISt6vectorIS0_IS0_IS0_IS0_IS0_IdSaIdEESaIS2_EESaIS4_EESaIS6_EESaIS8_EESaISA_EEJRKSC_EEvPT_DpOT0_"
 "_ZSt11__addressofINSt7__cxx1112basic_stringIcSt11char_traitsIcESaIcEEEEPT_RS6_"
 "_ZSt11__addressofISt6vectorIdSaIdEEEPT_RS3_"
 "_ZSt11__addressofISt6vectorIS0_IdSaIdEESaIS2_EEEPT_RS5_"
 "_ZSt11__addressofISt6vectorIS0_IS0_IdSaIdEESaIS2_EESaIS4_EEEPT_RS7_"
 "_ZSt11__addressofISt6vectorIS0_IS0_IS0_IdSaIdEESaIS2_EESaIS4_EESaIS6_EEEPT_RS9_"
 "_ZSt11__addressofISt6vectorIS0_IS0_IS0_IS0_IdSaIdEESaIS2_EESaIS4_EESaIS6_EESaIS8_EEEPT_RSB_"
 "_ZSt11__addressofISt6vectorIS0_IS0_IS0_IS0_IS0_IdSaIdEESaIS2_EESaIS4_EESaIS6_EESaIS8_EESaISA_EEEPT_RSD_"
 "_ZSt12__miter_baseIN9__gnu_cxx17__normal_iteratorIPKdSt6vectorIdSaIdEEEEET_S8_"
 "_ZSt12__miter_baseIPdEDTcl12__miter_basecldtfp_4baseEEESt13move_iteratorIT_E"
 "_ZSt12__miter_baseIPdET_S1_"
 "_ZSt12__niter_baseIPdET_S1_"
 "_ZSt12__niter_baseIPKdSt6vectorIdSaIdEEET_N9__gnu_cxx17__normal_iteratorIS5_T0_EE"
 "_ZSt12__niter_baseIPSt6vectorIdSaIdEEET_S4_"
 "_ZSt12__niter_baseIPSt6vectorIS0_IdSaIdEESaIS2_EEET_S6_"
 "_ZSt12__niter_baseIPSt6vectorIS0_IS0_IdSaIdEESaIS2_EESaIS4_EEET_S8_"
 "_ZSt12__niter_wrapIPdET_RKS1_S1_"
 "_ZSt12__relocate_aIPdS0_SaIdEET0_T_S3_S2_RT1_"
 "_ZSt12__relocate_aIPSt6vectorIdSaIdEES3_SaIS2_EET0_T_S6_S5_RT1_"
 "_ZSt12__relocate_aIPSt6vectorIS0_IdSaIdEESaIS2_EES5_SaIS4_EET0_T_S8_S7_RT1_"
 "_ZSt12__relocate_aIPSt6vectorIS0_IS0_IdSaIdEESaIS2_EESaIS4_EES7_SaIS6_EET0_T_SA_S9_RT1_"
 "_ZSt13__copy_move_aILb0EN9__gnu_cxx17__normal_iteratorIPKdSt6vectorIdSaIdEEEEPdET1_T0_SA_S9_"
 "_ZSt13__copy_move_aILb1EPdS0_ET1_T0_S2_S1_"
 "_ZSt14__copy_move_a1ILb0EPKdPdET1_T0_S4_S3_"
 "_ZSt14__copy_move_a1ILb1EPdS0_ET1_T0_S2_S1_"
 "_ZSt14__copy_move_a2ILb0EPKdPdET1_T0_S4_S3_"
 "_ZSt14__copy_move_a2ILb1EPdS0_ET1_T0_S2_S1_"
 "_ZSt14__relocate_a_1IddENSt9enable_ifIXsrSt24__is_bitwise_relocatableIT_vE5valueEPS2_E4typeES4_S4_S4_RSaIT0_E"
 "_ZSt14__relocate_a_1IPSt6vectorIdSaIdEES3_SaIS2_EET0_T_S6_S5_RT1_"
 "_ZSt14__relocate_a_1IPSt6vectorIS0_IdSaIdEESaIS2_EES5_SaIS4_EET0_T_S8_S7_RT1_"
 "_ZSt14__relocate_a_1IPSt6vectorIS0_IS0_IdSaIdEESaIS2_EESaIS4_EES7_SaIS6_EET0_T_SA_S9_RT1_"
 "_ZSt17__size_to_integery"
 "_ZSt18uninitialized_copyIN9__gnu_cxx17__normal_iteratorIPKdSt6vectorIdSaIdEEEEPdET0_T_SA_S9_"
 "_ZSt18uninitialized_copyIN9__gnu_cxx17__normal_iteratorIPKSt6vectorIdSaIdEES2_IS4_SaIS4_EEEEPS4_ET0_T_SC_SB_"
 "_ZSt18uninitialized_copyIN9__gnu_cxx17__normal_iteratorIPKSt6vectorIS2_IdSaIdEESaIS4_EES2_IS6_SaIS6_EEEEPS6_ET0_T_SE_SD_"
 "_ZSt18uninitialized_copyIN9__gnu_cxx17__normal_iteratorIPKSt6vectorIS2_IS2_IdSaIdEESaIS4_EESaIS6_EES2_IS8_SaIS8_EEEEPS8_ET0_T_SG_SF_"
 "_ZSt18uninitialized_copyIN9__gnu_cxx17__normal_iteratorIPKSt6vectorIS2_IS2_IS2_IdSaIdEESaIS4_EESaIS6_EESaIS8_EES2_ISA_SaISA_EEEEPSA_ET0_T_SI_SH_"
 "_ZSt18uninitialized_copyIN9__gnu_cxx17__normal_iteratorIPKSt6vectorIS2_IS2_IS2_IS2_IdSaIdEESaIS4_EESaIS6_EESaIS8_EESaISA_EES2_ISC_SaISC_EEEEPSC_ET0_T_SK_SJ_"
 "_ZSt18uninitialized_copyISt13move_iteratorIPdES1_ET0_T_S4_S3_"
 "_ZSt18uninitialized_copyISt13move_iteratorIPSt6vectorIdSaIdEEES4_ET0_T_S7_S6_"
 "_ZSt18uninitialized_copyISt13move_iteratorIPSt6vectorIS1_IdSaIdEESaIS3_EEES6_ET0_T_S9_S8_"
 "_ZSt18uninitialized_copyISt13move_iteratorIPSt6vectorIS1_IS1_IdSaIdEESaIS3_EESaIS5_EEES8_ET0_T_SB_SA_"
 "_ZSt19__iterator_categoryIPdENSt15iterator_traitsIT_E17iterator_categoryERKS2_"
 "_ZSt19__relocate_object_aISt6vectorIdSaIdEES2_SaIS2_EEvPT_PT0_RT1_"
 "_ZSt19__relocate_object_aISt6vectorIS0_IdSaIdEESaIS2_EES4_SaIS4_EEvPT_PT0_RT1_"
 "_ZSt19__relocate_object_aISt6vectorIS0_IS0_IdSaIdEESaIS2_EESaIS4_EES6_SaIS6_EEvPT_PT0_RT1_"
 "_ZSt20uninitialized_fill_nIPdydET_S1_T0_RKT1_"
 "_ZSt20uninitialized_fill_nIPSt6vectorIdSaIdEEyS2_ET_S4_T0_RKT1_"
 "_ZSt20uninitialized_fill_nIPSt6vectorIS0_IdSaIdEESaIS2_EEyS4_ET_S6_T0_RKT1_"
 "_ZSt20uninitialized_fill_nIPSt6vectorIS0_IS0_IdSaIdEESaIS2_EESaIS4_EEyS6_ET_S8_T0_RKT1_"
 "_ZSt20uninitialized_fill_nIPSt6vectorIS0_IS0_IS0_IdSaIdEESaIS2_EESaIS4_EESaIS6_EEyS8_ET_SA_T0_RKT1_"
 "_ZSt20uninitialized_fill_nIPSt6vectorIS0_IS0_IS0_IS0_IdSaIdEESaIS2_EESaIS4_EESaIS6_EESaIS8_EEySA_ET_SC_T0_RKT1_"
 "_ZSt20uninitialized_fill_nIPSt6vectorIS0_IS0_IS0_IS0_IS0_IdSaIdEESaIS2_EESaIS4_EESaIS6_EESaIS8_EESaISA_EEySC_ET_SE_T0_RKT1_"
 "_ZSt22__uninitialized_copy_aIN9__gnu_cxx17__normal_iteratorIPKdSt6vectorIdSaIdEEEEPddET0_T_SA_S9_RSaIT1_E"
 "_ZSt22__uninitialized_copy_aIN9__gnu_cxx17__normal_iteratorIPKSt6vectorIdSaIdEES2_IS4_SaIS4_EEEEPS4_S4_ET0_T_SC_SB_RSaIT1_E"
 "_ZSt22__uninitialized_copy_aIN9__gnu_cxx17__normal_iteratorIPKSt6vectorIS2_IdSaIdEESaIS4_EES2_IS6_SaIS6_EEEEPS6_S6_ET0_T_SE_SD_RSaIT1_E"
 "_ZSt22__uninitialized_copy_aIN9__gnu_cxx17__normal_iteratorIPKSt6vectorIS2_IS2_IdSaIdEESaIS4_EESaIS6_EES2_IS8_SaIS8_EEEEPS8_S8_ET0_T_SG_SF_RSaIT1_E"
 "_ZSt22__uninitialized_copy_aIN9__gnu_cxx17__normal_iteratorIPKSt6vectorIS2_IS2_IS2_IdSaIdEESaIS4_EESaIS6_EESaIS8_EES2_ISA_SaISA_EEEEPSA_SA_ET0_T_SI_SH_RSaIT1_E"
 "_ZSt22__uninitialized_copy_aIN9__gnu_cxx17__normal_iteratorIPKSt6vectorIS2_IS2_IS2_IS2_IdSaIdEESaIS4_EESaIS6_EESaIS8_EESaISA_EES2_ISC_SaISC_EEEEPSC_SC_ET0_T_SK_SJ_RSaIT1_E"
 "_ZSt22__uninitialized_copy_aISt13move_iteratorIPdES1_dET0_T_S4_S3_RSaIT1_E"
 "_ZSt22__uninitialized_copy_aISt13move_iteratorIPSt6vectorIdSaIdEEES4_S3_ET0_T_S7_S6_RSaIT1_E"
 "_ZSt22__uninitialized_copy_aISt13move_iteratorIPSt6vectorIS1_IdSaIdEESaIS3_EEES6_S5_ET0_T_S9_S8_RSaIT1_E"
 "_ZSt22__uninitialized_copy_aISt13move_iteratorIPSt6vectorIS1_IS1_IdSaIdEESaIS3_EESaIS5_EEES8_S7_ET0_T_SB_SA_RSaIT1_E"
 "_ZSt24__uninitialized_fill_n_aIPdyddET_S1_T0_RKT1_RSaIT2_E"
 "_ZSt24__uninitialized_fill_n_aIPSt6vectorIdSaIdEEyS2_S2_ET_S4_T0_RKT1_RSaIT2_E"
 "_ZSt24__uninitialized_fill_n_aIPSt6vectorIS0_IdSaIdEESaIS2_EEyS4_S4_ET_S6_T0_RKT1_RSaIT2_E"
 "_ZSt24__uninitialized_fill_n_aIPSt6vectorIS0_IS0_IdSaIdEESaIS2_EESaIS4_EEyS6_S6_ET_S8_T0_RKT1_RSaIT2_E"
 "_ZSt24__uninitialized_fill_n_aIPSt6vectorIS0_IS0_IS0_IdSaIdEESaIS2_EESaIS4_EESaIS6_EEyS8_S8_ET_SA_T0_RKT1_RSaIT2_E"
 "_ZSt24__uninitialized_fill_n_aIPSt6vectorIS0_IS0_IS0_IS0_IdSaIdEESaIS2_EESaIS4_EESaIS6_EESaIS8_EEySA_SA_ET_SC_T0_RKT1_RSaIT2_E"
 "_ZSt24__uninitialized_fill_n_aIPSt6vectorIS0_IS0_IS0_IS0_IS0_IdSaIdEESaIS2_EESaIS4_EESaIS6_EESaIS8_EESaISA_EEySC_SC_ET_SE_T0_RKT1_RSaIT2_E"
 "_ZSt32__make_move_if_noexcept_iteratorIdSt13move_iteratorIPdEET0_PT_"
 "_ZSt32__make_move_if_noexcept_iteratorISt6vectorIdSaIdEESt13move_iteratorIPS2_EET0_PT_"
 "_ZSt32__make_move_if_noexcept_iteratorISt6vectorIS0_IdSaIdEESaIS2_EESt13move_iteratorIPS4_EET0_PT_"
 "_ZSt32__make_move_if_noexcept_iteratorISt6vectorIS0_IS0_IdSaIdEESaIS2_EESaIS4_EESt13move_iteratorIPS6_EET0_PT_"
 "_ZSt34__uninitialized_move_if_noexcept_aIPdS0_SaIdEET0_T_S3_S2_RT1_"
 "_ZSt34__uninitialized_move_if_noexcept_aIPSt6vectorIdSaIdEES3_SaIS2_EET0_T_S6_S5_RT1_"
 "_ZSt34__uninitialized_move_if_noexcept_aIPSt6vectorIS0_IdSaIdEESaIS2_EES5_SaIS4_EET0_T_S8_S7_RT1_"
 "_ZSt34__uninitialized_move_if_noexcept_aIPSt6vectorIS0_IS0_IdSaIdEESaIS2_EESaIS4_EES7_SaIS6_EET0_T_SA_S9_RT1_"
 "_ZSt3maxIyERKT_S2_S2_"
 "_ZSt3minIiERKT_S2_S2_"
 "_ZSt3minIyERKT_S2_S2_"
 "_ZSt4copyIN9__gnu_cxx17__normal_iteratorIPKdSt6vectorIdSaIdEEEEPdET0_T_SA_S9_"
 "_ZSt4copyISt13move_iteratorIPdES1_ET0_T_S4_S3_"
 "_ZSt4moveIRdEONSt16remove_referenceIT_E4typeEOS2_"
 "_ZSt4moveIRNSt12_Vector_baseIdSaIdEE12_Vector_implEEONSt16remove_referenceIT_E4typeEOS6_"
 "_ZSt4moveIRNSt12_Vector_baseISt6vectorIdSaIdEESaIS3_EE12_Vector_implEEONSt16remove_referenceIT_E4typeEOS9_"
 "_ZSt4moveIRNSt12_Vector_baseISt6vectorIS1_IdSaIdEESaIS3_EESaIS5_EE12_Vector_implEEONSt16remove_referenceIT_E4typeEOSB_"
 "_ZSt4moveIRPdEONSt16remove_referenceIT_E4typeEOS3_"
 "_ZSt4moveIRPSt6vectorIdSaIdEEEONSt16remove_referenceIT_E4typeEOS6_"
 "_ZSt4moveIRPSt6vectorIS0_IdSaIdEESaIS2_EEEONSt16remove_referenceIT_E4typeEOS8_"
 "_ZSt4moveIRPSt6vectorIS0_IS0_IdSaIdEESaIS2_EESaIS4_EEEONSt16remove_referenceIT_E4typeEOSA_"
 "_ZSt4moveIRSt6vectorIdSaIdEEEONSt16remove_referenceIT_E4typeEOS5_"
 "_ZSt4moveIRSt6vectorIS0_IdSaIdEESaIS2_EEEONSt16remove_referenceIT_E4typeEOS7_"
 "_ZSt4moveIRSt6vectorIS0_IS0_IdSaIdEESaIS2_EESaIS4_EEEONSt16remove_referenceIT_E4typeEOS9_"
 "_ZSt6fill_nIPdydET_S1_T0_RKT1_"
 "_ZSt7forwardIdEOT_RNSt16remove_referenceIS0_E4typeE"
 "_ZSt7forwardIiEOT_RNSt16remove_referenceIS0_E4typeE"
 "_ZSt7forwardIRKdEOT_RNSt16remove_referenceIS2_E4typeE"
 "_ZSt7forwardIRKNSt7__cxx1112basic_stringIcSt11char_traitsIcESaIcEEEEOT_RNSt16remove_referenceIS8_E4typeE"
 "_ZSt7forwardIRKSt6vectorIdSaIdEEEOT_RNSt16remove_referenceIS5_E4typeE"
 "_ZSt7forwardIRKSt6vectorIS0_IdSaIdEESaIS2_EEEOT_RNSt16remove_referenceIS7_E4typeE"
 "_ZSt7forwardIRKSt6vectorIS0_IS0_IdSaIdEESaIS2_EESaIS4_EEEOT_RNSt16remove_referenceIS9_E4typeE"
 "_ZSt7forwardIRKSt6vectorIS0_IS0_IS0_IdSaIdEESaIS2_EESaIS4_EESaIS6_EEEOT_RNSt16remove_referenceISB_E4typeE"
 "_ZSt7forwardIRKSt6vectorIS0_IS0_IS0_IS0_IdSaIdEESaIS2_EESaIS4_EESaIS6_EESaIS8_EEEOT_RNSt16remove_referenceISD_E4typeE"
 "_ZSt7forwardIRKSt6vectorIS0_IS0_IS0_IS0_IS0_IdSaIdEESaIS2_EESaIS4_EESaIS6_EESaIS8_EESaISA_EEEOT_RNSt16remove_referenceISF_E4typeE"
 "_ZSt7forwardISt6vectorIdSaIdEEEOT_RNSt16remove_referenceIS3_E4typeE"
 "_ZSt7forwardISt6vectorIS0_IdSaIdEESaIS2_EEEOT_RNSt16remove_referenceIS5_E4typeE"
 "_ZSt7forwardISt6vectorIS0_IS0_IdSaIdEESaIS2_EESaIS4_EEEOT_RNSt16remove_referenceIS7_E4typeE"
 "_ZSt8__fill_aIPddEvT_S1_RKT0_"
 "_ZSt8_DestroyINSt7__cxx1112basic_stringIcSt11char_traitsIcESaIcEEEEvPT_"
 "_ZSt8_DestroyIPddEvT_S1_RSaIT0_E"
 "_ZSt8_DestroyIPdEvT_S1_"
 "_ZSt8_DestroyIPNSt7__cxx1112basic_stringIcSt11char_traitsIcESaIcEEEEvT_S7_"
 "_ZSt8_DestroyIPNSt7__cxx1112basic_stringIcSt11char_traitsIcESaIcEEES5_EvT_S7_RSaIT0_E"
 "_ZSt8_DestroyIPSt6vectorIdSaIdEEEvT_S4_"
 "_ZSt8_DestroyIPSt6vectorIdSaIdEES2_EvT_S4_RSaIT0_E"
 "_ZSt8_DestroyIPSt6vectorIS0_IdSaIdEESaIS2_EEEvT_S6_"
 "_ZSt8_DestroyIPSt6vectorIS0_IdSaIdEESaIS2_EES4_EvT_S6_RSaIT0_E"
 "_ZSt8_DestroyIPSt6vectorIS0_IS0_IdSaIdEESaIS2_EESaIS4_EEEvT_S8_"
 "_ZSt8_DestroyIPSt6vectorIS0_IS0_IdSaIdEESaIS2_EESaIS4_EES6_EvT_S8_RSaIT0_E"
 "_ZSt8_DestroyIPSt6vectorIS0_IS0_IS0_IdSaIdEESaIS2_EESaIS4_EESaIS6_EEEvT_SA_"
 "_ZSt8_DestroyIPSt6vectorIS0_IS0_IS0_IdSaIdEESaIS2_EESaIS4_EESaIS6_EES8_EvT_SA_RSaIT0_E"
 "_ZSt8_DestroyIPSt6vectorIS0_IS0_IS0_IS0_IdSaIdEESaIS2_EESaIS4_EESaIS6_EESaIS8_EEEvT_SC_"
 "_ZSt8_DestroyIPSt6vectorIS0_IS0_IS0_IS0_IdSaIdEESaIS2_EESaIS4_EESaIS6_EESaIS8_EESA_EvT_SC_RSaIT0_E"
 "_ZSt8_DestroyIPSt6vectorIS0_IS0_IS0_IS0_IS0_IdSaIdEESaIS2_EESaIS4_EESaIS6_EESaIS8_EESaISA_EEEvT_SE_"
 "_ZSt8_DestroyIPSt6vectorIS0_IS0_IS0_IS0_IS0_IdSaIdEESaIS2_EESaIS4_EESaIS6_EESaIS8_EESaISA_EESC_EvT_SE_RSaIT0_E"
 "_ZSt8_DestroyISt6vectorIdSaIdEEEvPT_"
 "_ZSt8_DestroyISt6vectorIS0_IdSaIdEESaIS2_EEEvPT_"
 "_ZSt8_DestroyISt6vectorIS0_IS0_IdSaIdEESaIS2_EESaIS4_EEEvPT_"
 "_ZSt8_DestroyISt6vectorIS0_IS0_IS0_IdSaIdEESaIS2_EESaIS4_EESaIS6_EEEvPT_"
 "_ZSt8_DestroyISt6vectorIS0_IS0_IS0_IS0_IdSaIdEESaIS2_EESaIS4_EESaIS6_EESaIS8_EEEvPT_"
 "_ZSt8_DestroyISt6vectorIS0_IS0_IS0_IS0_IS0_IdSaIdEESaIS2_EESaIS4_EESaIS6_EESaIS8_EESaISA_EEEvPT_"
 "_ZSt9__fill_a1IPddEN9__gnu_cxx11__enable_ifIXsrSt11__is_scalarIT0_E7__valueEvE6__typeET_S8_RKS4_"
 "_ZStaNRSt13_Ios_FmtflagsS_"
 "_ZStanSt13_Ios_FmtflagsS_"
 "_ZStcoSt13_Ios_Fmtflags"
 "_ZSteqIPSt6vectorIdSaIdEEEbRKSt13move_iteratorIT_ES8_"
 "_ZSteqIPSt6vectorIS0_IdSaIdEESaIS2_EEEbRKSt13move_iteratorIT_ESA_"
 "_ZSteqIPSt6vectorIS0_IS0_IdSaIdEESaIS2_EESaIS4_EEEbRKSt13move_iteratorIT_ESC_"
 "_ZStneIPSt6vectorIdSaIdEEEbRKSt13move_iteratorIT_ES8_"
 "_ZStneIPSt6vectorIS0_IdSaIdEESaIS2_EEEbRKSt13move_iteratorIT_ESA_"
 "_ZStneIPSt6vectorIS0_IS0_IdSaIdEESaIS2_EESaIS4_EEEbRKSt13move_iteratorIT_ESC_"
 "_ZStoRRSt13_Ios_FmtflagsS_"
 "_ZStorSt13_Ios_FmtflagsS_"
 "_ZStorSt13_Ios_OpenmodeS_"
 "_ZTCN4Rcpp8RostreamILb0EEE0_So"
 "_ZTCN4Rcpp8RostreamILb1EEE0_So"
 "_ZTIN4Rcpp10RstreambufILb0EEE"
 "_ZTIN4Rcpp10RstreambufILb1EEE"
 "_ZTIN4Rcpp14not_compatibleE"
 "_ZTIN4Rcpp19index_out_of_boundsE"
 "_ZTIN4Rcpp8RostreamILb0EEE"
 "_ZTIN4Rcpp8RostreamILb1EEE"
 "_ZTIN4Rcpp9exceptionE"
 "_ZTISt9exception"
 "_ZTSN4Rcpp10RstreambufILb0EEE"
 "_ZTSN4Rcpp10RstreambufILb1EEE"
 "_ZTSN4Rcpp14not_compatibleE"
 "_ZTSN4Rcpp19index_out_of_boundsE"
 "_ZTSN4Rcpp8RostreamILb0EEE"
 "_ZTSN4Rcpp8RostreamILb1EEE"
 "_ZTSN4Rcpp9exceptionE"
 "_ZTSSt9exception"
 "_ZTTN4Rcpp8RostreamILb0EEE"
 "_ZTTN4Rcpp8RostreamILb1EEE"
 "_ZTv0_n24_N4Rcpp8RostreamILb0EED0Ev"
 "_ZTv0_n24_N4Rcpp8RostreamILb0EED1Ev"
 "_ZTv0_n24_N4Rcpp8RostreamILb1EED0Ev"
 "_ZTv0_n24_N4Rcpp8RostreamILb1EED1Ev"
 "_ZTVN4Rcpp10RstreambufILb0EEE"
 "_ZTVN4Rcpp10RstreambufILb1EEE"
 "_ZTVN4Rcpp14not_compatibleE"
 "_ZTVN4Rcpp19index_out_of_boundsE"
 "_ZTVN4Rcpp8RostreamILb0EEE"
 "_ZTVN4Rcpp8RostreamILb1EEE"
 "_ZTVN4Rcpp9exceptionE"
 "_ZZ7dataptrP7SEXPRECE3fun"
 "_ZZN9__gnu_cxx6__stoaIddcJEEET0_PFT_PKT1_PPS3_DpT2_EPKcS5_PyS9_EN10_Range_chk6_S_chkEdSt17integral_constantIbLb0EE"
 "_ZZN9__gnu_cxx6__stoaIddcJEEET0_PFT_PKT1_PPS3_DpT2_EPKcS5_PyS9_EN11_Save_errnoC1Ev"
 "_ZZN9__gnu_cxx6__stoaIddcJEEET0_PFT_PKT1_PPS3_DpT2_EPKcS5_PyS9_EN11_Save_errnoD1Ev"
 "strtod"
 "_gonoHistoryMatching_loadInputParameters"
 "_gonoHistoryMatching_modelDynamic"
 "_gonoHistoryMatching_runmodel"
 "_gonoHistoryMatching_saveToFile"
 "_gonoHistoryMatching_sumVector"
 "_Z13get_last_callv"
 "_Z14make_conditionRKNSt7__cxx1112basic_stringIcSt11char_traitsIcESaIcEEEP7SEXPRECS8_S8_"
 "_Z19string_to_try_errorRKNSt7__cxx1112basic_stringIcSt11char_traitsIcESaIcEEE"
 "_Z20rcpp_get_stack_tracev"
 "_Z20rcpp_set_stack_traceP7SEXPREC"
 "_Z21get_exception_classesRKNSt7__cxx1112basic_stringIcSt11char_traitsIcESaIcEEE"
 "_Z24exception_to_r_conditionRKSt9exception"
 "_Z29rcpp_exception_to_r_conditionRKN4Rcpp9exceptionE"
 "_Z31exception_to_condition_templateIN4Rcpp9exceptionEEP7SEXPRECRKT_b"
 "_Z31exception_to_condition_templateISt9exceptionEP7SEXPRECRKT_b"
 "_Z7dataptrP7SEXPREC"
 "_Z8demangleRKNSt7__cxx1112basic_stringIcSt11char_traitsIcESaIcEEE"
 "_ZGVZ20rcpp_get_stack_tracevE3fun"
 "_ZGVZ20rcpp_set_stack_traceP7SEXPRECE3fun"
 "_ZGVZ7dataptrP7SEXPRECE3fun"
 "_ZGVZ8demangleRKNSt7__cxx1112basic_stringIcSt11char_traitsIcESaIcEEEE3funB5cxx11"
 "_ZGVZN4Rcpp20Rcpp_precious_removeEP7SEXPRECE3fun"
 "_ZGVZN4Rcpp22Rcpp_precious_preserveEP7SEXPRECE3fun"
 "_ZGVZN4Rcpp8internal12exitRNGScopeEvE3fun"
 "_ZGVZN4Rcpp8internal13enterRNGScopeEvE3fun"
 "_ZN10tinyformat10FormatListC2EPNS_6detail9FormatArgEi"
 "_ZN10tinyformat11formatValueIiEEvRSoPKcS3_iRKT_"
 "_ZN10tinyformat11formatValueIPKcEEvRSoS2_S2_iRKT_"
 "_ZN10tinyformat14makeFormatListIJiEEENS_6detail11FormatListNIXsZT_EEEDpRKT_"
 "_ZN10tinyformat14makeFormatListIJPKcEEENS_6detail11FormatListNIXsZT_EEEDpRKT_"
 "_ZN10tinyformat14makeFormatListIJPKciEEENS_6detail11FormatListNIXsZT_EEEDpRKT_"
 "_ZN10tinyformat6detail10formatImplERSoPKcPKNS0_9FormatArgEi"
 "_ZN10tinyformat6detail11FormatListNILi1EEC1IJiEEEDpRKT_"
 "_ZN10tinyformat6detail11FormatListNILi1EEC1IJPKcEEEDpRKT_"
 "_ZN10tinyformat6detail11FormatListNILi2EEC1IJPKciEEEDpRKT_"
 "_ZN10tinyformat6detail12convertToIntIiLb1EE6invokeERKi"
 "_ZN10tinyformat6detail12convertToIntIPKcLb0EE6invokeERKS3_"
 "_ZN10tinyformat6detail15formatTruncatedERSoPKci"
 "_ZN10tinyformat6detail15formatTruncatedIiEEvRSoRKT_i"
 "_ZN10tinyformat6detail17formatValueAsTypeIicLb1EE6invokeERSoRKi"
 "_ZN10tinyformat6detail17formatValueAsTypeIPKcPKvLb1EE6invokeERSoRKS3_"
 "_ZN10tinyformat6detail18parseIntAndAdvanceERPKc"
 "_ZN10tinyformat6detail21streamStateFromFormatERSoRbRiPKcPKNS0_9FormatArgES3_i"
 "_ZN10tinyformat6detail24printFormatStringLiteralERSoPKc"
 "_ZN10tinyformat6detail9FormatArg10formatImplIiEEvRSoPKcS5_iPKv"
 "_ZN10tinyformat6detail9FormatArg10formatImplIPKcEEvRSoS4_S4_iPKv"
 "_ZN10tinyformat6detail9FormatArg9toIntImplIiEEiPKv"
 "_ZN10tinyformat6detail9FormatArg9toIntImplIPKcEEiPKv"
 "_ZN10tinyformat6detail9FormatArgC1IiEERKT_"
 "_ZN10tinyformat6detail9FormatArgC1IPKcEERKT_"
 "_ZN10tinyformat6formatIJiEEENSt7__cxx1112basic_stringIcSt11char_traitsIcESaIcEEEPKcDpRKT_"
 "_ZN10tinyformat6formatIJiEEEvRSoPKcDpRKT_"
 "_ZN10tinyformat6formatIJPKcEEENSt7__cxx1112basic_stringIcSt11char_traitsIcESaIcEEES2_DpRKT_"
 "_ZN10tinyformat6formatIJPKcEEEvRSoS2_DpRKT_"
 "_ZN10tinyformat6formatIJPKciEEENSt7__cxx1112basic_stringIcSt11char_traitsIcESaIcEEES2_DpRKT_"
 "_ZN10tinyformat6formatIJPKciEEEvRSoS2_DpRKT_"
 "_ZN10tinyformat7vformatERSoPKcRKNS_10FormatListE"
 "_ZN4Rcpp10RstreambufILb0EE4syncEv"
 "_ZN4Rcpp10RstreambufILb0EE6xsputnEPKcx"
 "_ZN4Rcpp10RstreambufILb0EE8overflowEi"
 "_ZN4Rcpp10RstreambufILb0EEC1Ev"
 "_ZN4Rcpp10RstreambufILb0EED0Ev"
 "_ZN4Rcpp10RstreambufILb0EED1Ev"
 "_ZN4Rcpp10RstreambufILb1EE4syncEv"
 "_ZN4Rcpp10RstreambufILb1EE6xsputnEPKcx"
 "_ZN4Rcpp10RstreambufILb1EE8overflowEi"
 "_ZN4Rcpp10RstreambufILb1EEC1Ev"
 "_ZN4Rcpp10RstreambufILb1EED0Ev"
 "_ZN4Rcpp10RstreambufILb1EED1Ev"
 "_ZN4Rcpp12Rcpp_protectEP7SEXPREC"
 "_ZN4Rcpp12RObject_ImplINS_15PreserveStorageEE6updateEP7SEXPREC"
 "_ZN4Rcpp12RObject_ImplINS_15PreserveStorageEEaSIP7SEXPRECEERS2_RKT_"
 "_ZN4Rcpp12RObject_ImplINS_15PreserveStorageEEC1Ev"
 "_ZN4Rcpp12RObject_ImplINS_15PreserveStorageEED1Ev"
 "_ZN4Rcpp13unwindProtectEPFP7SEXPRECPvES2_"
 "_ZN4Rcpp14InputParameterIiEC1EP7SEXPREC"
 "_ZN4Rcpp14InputParameterIiEcviEv"
 "_ZN4Rcpp14InputParameterINS_6VectorILi19ENS_15PreserveStorageEEEEC1EP7SEXPREC"
 "_ZN4Rcpp14InputParameterINS_6VectorILi19ENS_15PreserveStorageEEEEcvS3_Ev"
 "_ZN4Rcpp14InputParameterINSt7__cxx1112basic_stringIcSt11char_traitsIcESaIcEEEEC1EP7SEXPREC"
 "_ZN4Rcpp14InputParameterINSt7__cxx1112basic_stringIcSt11char_traitsIcESaIcEEEEcvS6_Ev"
 "_ZN4Rcpp14InputParameterIR10parametersEC1EP7SEXPREC"
 "_ZN4Rcpp14InputParameterIR10parametersEcvS2_Ev"
 "_ZN4Rcpp14not_compatibleC1IJiEEEPKcDpOT_"
 "_ZN4Rcpp14not_compatibleC1IJPKcEEES3_DpOT_"
 "_ZN4Rcpp14not_compatibleC1IJPKciEEES3_DpOT_"
 "_ZN4Rcpp14not_compatibleC1IJRKPKcEEES3_DpOT_"
 "_ZN4Rcpp14not_compatibleD0Ev"
 "_ZN4Rcpp14not_compatibleD1Ev"
 "_ZN4Rcpp14Rcpp_fast_evalEP7SEXPRECS1_"
 "_ZN4Rcpp14Rcpp_unprotectEi"
 "_ZN4Rcpp15PreserveStorageINS_12RObject_ImplIS0_EEE5set__EP7SEXPREC"
 "_ZN4Rcpp15PreserveStorageINS_12RObject_ImplIS0_EEEC2Ev"
 "_ZN4Rcpp15PreserveStorageINS_12RObject_ImplIS0_EEED2Ev"
 "_ZN4Rcpp15PreserveStorageINS_16Environment_ImplIS0_EEE5set__EP7SEXPREC"
 "_ZN4Rcpp15PreserveStorageINS_16Environment_ImplIS0_EEEC2Ev"
 "_ZN4Rcpp15PreserveStorageINS_16Environment_ImplIS0_EEED2Ev"
 "_ZN4Rcpp15PreserveStorageINS_6VectorILi16ES0_EEE5set__EP7SEXPREC"
 "_ZN4Rcpp15PreserveStorageINS_6VectorILi16ES0_EEEC2Ev"
 "_ZN4Rcpp15PreserveStorageINS_6VectorILi16ES0_EEED2Ev"
 "_ZN4Rcpp15PreserveStorageINS_6VectorILi19ES0_EEE5set__EP7SEXPREC"
 "_ZN4Rcpp15PreserveStorageINS_6VectorILi19ES0_EEE6copy__IS2_EERT_RKS5_"
 "_ZN4Rcpp15PreserveStorageINS_6VectorILi19ES0_EEEC2Ev"
 "_ZN4Rcpp15PreserveStorageINS_6VectorILi19ES0_EEED2Ev"
 "_ZN4Rcpp16Environment_ImplINS_15PreserveStorageEE14as_environmentEP7SEXPREC"
 "_ZN4Rcpp16Environment_ImplINS_15PreserveStorageEE6updateEP7SEXPREC"
 "_ZN4Rcpp16Environment_ImplINS_15PreserveStorageEEC1EP7SEXPREC"
 "_ZN4Rcpp16Environment_ImplINS_15PreserveStorageEED1Ev"
 "_ZN4Rcpp17LongjumpExceptionC1EP7SEXPREC"
 "_ZN4Rcpp20AttributeProxyPolicyINS_6VectorILi19ENS_15PreserveStorageEEEE14AttributeProxy3setEP7SEXPREC"
 "_ZN4Rcpp20AttributeProxyPolicyINS_6VectorILi19ENS_15PreserveStorageEEEE14AttributeProxyaSIA17_cEERS5_RKT_"
 "_ZN4Rcpp20AttributeProxyPolicyINS_6VectorILi19ENS_15PreserveStorageEEEE14AttributeProxyaSINS_6ShieldIP7SEXPRECEEEERS5_RKT_"
 "_ZN4Rcpp20AttributeProxyPolicyINS_6VectorILi19ENS_15PreserveStorageEEEE14AttributeProxyC1ERS3_RKNSt7__cxx1112basic_stringIcSt11char_traitsIcESaIcEEE"
 "_ZN4Rcpp20AttributeProxyPolicyINS_6VectorILi19ENS_15PreserveStorageEEEE4attrERKNSt7__cxx1112basic_stringIcSt11char_traitsIcESaIcEEE"
 "_ZN4Rcpp20Rcpp_precious_removeEP7SEXPREC"
 "_ZN4Rcpp20Rcpp_PreciousReleaseEP7SEXPREC"
 "_ZN4Rcpp21Rcpp_PreciousPreserveEP7SEXPREC"
 "_ZN4Rcpp22Rcpp_precious_preserveEP7SEXPREC"
 "_ZN4Rcpp23ReferenceInputParameterISt6vectorIS1_IS1_IS1_IS1_IS1_IS1_IdSaIdEESaIS3_EESaIS5_EESaIS7_EESaIS9_EESaISB_EESaISD_EEEC1EP7SEXPREC"
 "_ZN4Rcpp23ReferenceInputParameterISt6vectorIS1_IS1_IS1_IS1_IS1_IS1_IdSaIdEESaIS3_EESaIS5_EESaIS7_EESaIS9_EESaISB_EESaISD_EEEcvRSF_Ev"
 "_ZN4Rcpp23ReferenceInputParameterISt6vectorIS1_IS1_IS1_IS1_IS1_IS1_IdSaIdEESaIS3_EESaIS5_EESaIS7_EESaIS9_EESaISB_EESaISD_EEED1Ev"
 "_ZN4Rcpp2asIiEET_P7SEXPREC"
 "_ZN4Rcpp2asINS_6VectorILi19ENS_15PreserveStorageEEEEET_P7SEXPREC"
 "_ZN4Rcpp2asINSt7__cxx1112basic_stringIcSt11char_traitsIcESaIcEEEEET_P7SEXPREC"
 "_ZN4Rcpp2asIR10parametersEET_P7SEXPREC"
 "_ZN4Rcpp2asISt6vectorIdSaIdEEEET_P7SEXPREC"
 "_ZN4Rcpp2asISt6vectorIS1_IdSaIdEESaIS3_EEEET_P7SEXPREC"
 "_ZN4Rcpp2asISt6vectorIS1_IS1_IdSaIdEESaIS3_EESaIS5_EEEET_P7SEXPREC"
 "_ZN4Rcpp2asISt6vectorIS1_IS1_IS1_IdSaIdEESaIS3_EESaIS5_EESaIS7_EEEET_P7SEXPREC"
 "_ZN4Rcpp2asISt6vectorIS1_IS1_IS1_IS1_IdSaIdEESaIS3_EESaIS5_EESaIS7_EESaIS9_EEEET_P7SEXPREC"
 "_ZN4Rcpp2asISt6vectorIS1_IS1_IS1_IS1_IS1_IdSaIdEESaIS3_EESaIS5_EESaIS7_EESaIS9_EESaISB_EEEET_P7SEXPREC"
 "_ZN4Rcpp2asISt6vectorIS1_IS1_IS1_IS1_IS1_IS1_IdSaIdEESaIS3_EESaIS5_EESaIS7_EESaIS9_EESaISB_EESaISD_EEEET_P7SEXPREC"
 "_ZN4Rcpp4stopERKNSt7__cxx1112basic_stringIcSt11char_traitsIcESaIcEEE"
 "_ZN4Rcpp4wrapEPKc"
 "_ZN4Rcpp4wrapIdEEP7SEXPRECRKT_"
 "_ZN4Rcpp4wrapIiEEP7SEXPRECRKT_"
 "_ZN4Rcpp4wrapINS_6ShieldIP7SEXPRECEEEES3_RKT_"
 "_ZN4Rcpp4wrapINS_6VectorILi16ENS_15PreserveStorageEEEEEP7SEXPRECRKT_"
 "_ZN4Rcpp4wrapIP7SEXPRECEES2_RKT_"
 "_ZN4Rcpp5ArmorIP7SEXPRECE4initES2_"
 "_ZN4Rcpp5ArmorIP7SEXPRECEaSIS2_EERS3_RKT_"
 "_ZN4Rcpp5ArmorIP7SEXPRECEC1Ev"
 "_ZN4Rcpp5ArmorIP7SEXPRECED1Ev"
 "_ZN4Rcpp6objectI10parametersEC1EPS1_"
 "_ZN4Rcpp6objectI10parametersEcvPS1_Ev"
 "_ZN4Rcpp6r_castILi13EEEP7SEXPRECS2_"
 "_ZN4Rcpp6r_castILi14EEEP7SEXPRECS2_"
 "_ZN4Rcpp6r_castILi16EEEP7SEXPRECS2_"
 "_ZN4Rcpp6r_castILi19EEEP7SEXPRECS2_"
 "_ZN4Rcpp6ShieldIP7SEXPRECEC1ES2_"
 "_ZN4Rcpp6ShieldIP7SEXPRECED1Ev"
 "_ZN4Rcpp6traits11proxy_cacheILi16ENS_15PreserveStorageEE6updateERKNS_6VectorILi16ES2_EE"
 "_ZN4Rcpp6traits11proxy_cacheILi16ENS_15PreserveStorageEEC1Ev"
 "_ZN4Rcpp6traits11proxy_cacheILi16ENS_15PreserveStorageEED1Ev"
 "_ZN4Rcpp6traits11proxy_cacheILi19ENS_15PreserveStorageEE6updateERKNS_6VectorILi19ES2_EE"
 "_ZN4Rcpp6traits11proxy_cacheILi19ENS_15PreserveStorageEEC1Ev"
 "_ZN4Rcpp6traits11proxy_cacheILi19ENS_15PreserveStorageEED1Ev"
 "_ZN4Rcpp6traits12named_objectIA1_cEC1ERKNSt7__cxx1112basic_stringIcSt11char_traitsIcESaIcEEERA1_Kc"
 "_ZN4Rcpp6traits12named_objectIiEC1ERKNSt7__cxx1112basic_stringIcSt11char_traitsIcESaIcEEERKi"
 "_ZN4Rcpp6traits12named_objectINS_6VectorILi16ENS_15PreserveStorageEEEEC1ERKNSt7__cxx1112basic_stringIcSt11char_traitsIcESaIcEEERKS4_"
 "_ZN4Rcpp6traits13RangeExporterISt6vectorIS2_IdSaIdEESaIS4_EEE3getEv"
 "_ZN4Rcpp6traits13RangeExporterISt6vectorIS2_IdSaIdEESaIS4_EEEC2EP7SEXPREC"
 "_ZN4Rcpp6traits13RangeExporterISt6vectorIS2_IdSaIdEESaIS4_EEED2Ev"
 "_ZN4Rcpp6traits13RangeExporterISt6vectorIS2_IS2_IdSaIdEESaIS4_EESaIS6_EEE3getEv"
 "_ZN4Rcpp6traits13RangeExporterISt6vectorIS2_IS2_IdSaIdEESaIS4_EESaIS6_EEEC2EP7SEXPREC"
 "_ZN4Rcpp6traits13RangeExporterISt6vectorIS2_IS2_IdSaIdEESaIS4_EESaIS6_EEED2Ev"
 "_ZN4Rcpp6traits13RangeExporterISt6vectorIS2_IS2_IS2_IdSaIdEESaIS4_EESaIS6_EESaIS8_EEE3getEv"
 "_ZN4Rcpp6traits13RangeExporterISt6vectorIS2_IS2_IS2_IdSaIdEESaIS4_EESaIS6_EESaIS8_EEEC2EP7SEXPREC"
 "_ZN4Rcpp6traits13RangeExporterISt6vectorIS2_IS2_IS2_IdSaIdEESaIS4_EESaIS6_EESaIS8_EEED2Ev"
 "_ZN4Rcpp6traits13RangeExporterISt6vectorIS2_IS2_IS2_IS2_IdSaIdEESaIS4_EESaIS6_EESaIS8_EESaISA_EEE3getEv"
 "_ZN4Rcpp6traits13RangeExporterISt6vectorIS2_IS2_IS2_IS2_IdSaIdEESaIS4_EESaIS6_EESaIS8_EESaISA_EEEC2EP7SEXPREC"
 "_ZN4Rcpp6traits13RangeExporterISt6vectorIS2_IS2_IS2_IS2_IdSaIdEESaIS4_EESaIS6_EESaIS8_EESaISA_EEED2Ev"
 "_ZN4Rcpp6traits13RangeExporterISt6vectorIS2_IS2_IS2_IS2_IS2_IdSaIdEESaIS4_EESaIS6_EESaIS8_EESaISA_EESaISC_EEE3getEv"
 "_ZN4Rcpp6traits13RangeExporterISt6vectorIS2_IS2_IS2_IS2_IS2_IdSaIdEESaIS4_EESaIS6_EESaIS8_EESaISA_EESaISC_EEEC2EP7SEXPREC"
 "_ZN4Rcpp6traits13RangeExporterISt6vectorIS2_IS2_IS2_IS2_IS2_IdSaIdEESaIS4_EESaIS6_EESaIS8_EESaISA_EESaISC_EEED2Ev"
 "_ZN4Rcpp6traits13RangeExporterISt6vectorIS2_IS2_IS2_IS2_IS2_IS2_IdSaIdEESaIS4_EESaIS6_EESaIS8_EESaISA_EESaISC_EESaISE_EEE3getEv"
 "_ZN4Rcpp6traits13RangeExporterISt6vectorIS2_IS2_IS2_IS2_IS2_IS2_IdSaIdEESaIS4_EESaIS6_EESaIS8_EESaISA_EESaISC_EESaISE_EEEC2EP7SEXPREC"
 "_ZN4Rcpp6traits13RangeExporterISt6vectorIS2_IS2_IS2_IS2_IS2_IS2_IdSaIdEESaIS4_EESaIS6_EESaIS8_EESaISA_EESaISC_EESaISE_EEED2Ev"
 "_ZN4Rcpp6traits17ContainerExporterISt6vectordE3getEv"
 "_ZN4Rcpp6traits17ContainerExporterISt6vectordEC2EP7SEXPREC"
 "_ZN4Rcpp6traits17ContainerExporterISt6vectordED2Ev"
 "_ZN4Rcpp6traits8ExporterINS_6VectorILi19ENS_15PreserveStorageEEEE3getEv"
 "_ZN4Rcpp6traits8ExporterINS_6VectorILi19ENS_15PreserveStorageEEEEC1EP7SEXPREC"
 "_ZN4Rcpp6traits8ExporterINS_6VectorILi19ENS_15PreserveStorageEEEED1Ev"
 "_ZN4Rcpp6traits8ExporterISt6vectorIdSaIdEEEC1EP7SEXPREC"
 "_ZN4Rcpp6traits8ExporterISt6vectorIdSaIdEEED1Ev"
 "_ZN4Rcpp6traits8ExporterISt6vectorIS2_IdSaIdEESaIS4_EEEC1EP7SEXPREC"
 "_ZN4Rcpp6traits8ExporterISt6vectorIS2_IdSaIdEESaIS4_EEED1Ev"
 "_ZN4Rcpp6traits8ExporterISt6vectorIS2_IS2_IdSaIdEESaIS4_EESaIS6_EEEC1EP7SEXPREC"
 "_ZN4Rcpp6traits8ExporterISt6vectorIS2_IS2_IdSaIdEESaIS4_EESaIS6_EEED1Ev"
 "_ZN4Rcpp6traits8ExporterISt6vectorIS2_IS2_IS2_IdSaIdEESaIS4_EESaIS6_EESaIS8_EEEC1EP7SEXPREC"
 "_ZN4Rcpp6traits8ExporterISt6vectorIS2_IS2_IS2_IdSaIdEESaIS4_EESaIS6_EESaIS8_EEED1Ev"
 "_ZN4Rcpp6traits8ExporterISt6vectorIS2_IS2_IS2_IS2_IdSaIdEESaIS4_EESaIS6_EESaIS8_EESaISA_EEEC1EP7SEXPREC"
 "_ZN4Rcpp6traits8ExporterISt6vectorIS2_IS2_IS2_IS2_IdSaIdEESaIS4_EESaIS6_EESaIS8_EESaISA_EEED1Ev"
 "_ZN4Rcpp6traits8ExporterISt6vectorIS2_IS2_IS2_IS2_IS2_IdSaIdEESaIS4_EESaIS6_EESaIS8_EESaISA_EESaISC_EEEC1EP7SEXPREC"
 "_ZN4Rcpp6traits8ExporterISt6vectorIS2_IS2_IS2_IS2_IS2_IdSaIdEESaIS4_EESaIS6_EESaIS8_EESaISA_EESaISC_EEED1Ev"
 "_ZN4Rcpp6traits8ExporterISt6vectorIS2_IS2_IS2_IS2_IS2_IS2_IdSaIdEESaIS4_EESaIS6_EESaIS8_EESaISA_EESaISC_EESaISE_EEEC1EP7SEXPREC"
 "_ZN4Rcpp6traits8ExporterISt6vectorIS2_IS2_IS2_IS2_IS2_IS2_IdSaIdEESaIS4_EESaIS6_EESaIS8_EESaISA_EESaISC_EESaISE_EEED1Ev"
 "_ZN4Rcpp6VectorILi16ENS_15PreserveStorageEE4initEv"
 "_ZN4Rcpp6VectorILi16ENS_15PreserveStorageEE5beginEv"
 "_ZN4Rcpp6VectorILi16ENS_15PreserveStorageEE6updateEP7SEXPREC"
 "_ZN4Rcpp6VectorILi16ENS_15PreserveStorageEEC1IyEET_PNS_6traits9enable_ifIXsrNS5_13is_arithmeticIS4_EE5valueEvE4typeE"
 "_ZN4Rcpp6VectorILi16ENS_15PreserveStorageEED1Ev"
 "_ZN4Rcpp6VectorILi19ENS_15PreserveStorageEE15replace_elementINS_6traits12named_objectIA1_cEEEEvNS_8internal14Proxy_IteratorINS8_13generic_proxyILi19ES1_EEEEP7SEXPRECxRKT_"
 "_ZN4Rcpp6VectorILi19ENS_15PreserveStorageEE15replace_elementINS_6traits12named_objectIiEEEEvNS_8internal14Proxy_IteratorINS7_13generic_proxyILi19ES1_EEEEP7SEXPRECxRKT_"
 "_ZN4Rcpp6VectorILi19ENS_15PreserveStorageEE15replace_elementINS_6traits12named_objectINS0_ILi16ES1_EEEEEEvNS_8internal14Proxy_IteratorINS8_13generic_proxyILi19ES1_EEEEP7SEXPRECxRKT_"
 "_ZN4Rcpp6VectorILi19ENS_15PreserveStorageEE16create__dispatchINS_6traits12named_objectIA1_cEENS5_IiEENS5_INS0_ILi16ES1_EEEEEES2_NS4_17integral_constantIbLb1EEERKT_RKT0_RKT1_"
 "_ZN4Rcpp6VectorILi19ENS_15PreserveStorageEE25replace_element__dispatchINS_6traits12named_objectIA1_cEEEEvNS4_17integral_constantIbLb1EEENS_8internal14Proxy_IteratorINSA_13generic_proxyILi19ES1_EEEEP7SEXPRECxRKT_"
 "_ZN4Rcpp6VectorILi19ENS_15PreserveStorageEE25replace_element__dispatchINS_6traits12named_objectIiEEEEvNS4_17integral_constantIbLb1EEENS_8internal14Proxy_IteratorINS9_13generic_proxyILi19ES1_EEEEP7SEXPRECxRKT_"
 "_ZN4Rcpp6VectorILi19ENS_15PreserveStorageEE25replace_element__dispatchINS_6traits12named_objectINS0_ILi16ES1_EEEEEEvNS4_17integral_constantIbLb1EEENS_8internal14Proxy_IteratorINSA_13generic_proxyILi19ES1_EEEEP7SEXPRECxRKT_"
 "_ZN4Rcpp6VectorILi19ENS_15PreserveStorageEE37replace_element__dispatch__isArgumentINS_6traits12named_objectIA1_cEEEEvNS4_17integral_constantIbLb0EEENS_8internal14Proxy_IteratorINSA_13generic_proxyILi19ES1_EEEEP7SEXPRECxRKT_"
 "_ZN4Rcpp6VectorILi19ENS_15PreserveStorageEE37replace_element__dispatch__isArgumentINS_6traits12named_objectIiEEEEvNS4_17integral_constantIbLb0EEENS_8internal14Proxy_IteratorINS9_13generic_proxyILi19ES1_EEEEP7SEXPRECxRKT_"
 "_ZN4Rcpp6VectorILi19ENS_15PreserveStorageEE37replace_element__dispatch__isArgumentINS_6traits12named_objectINS0_ILi16ES1_EEEEEEvNS4_17integral_constantIbLb0EEENS_8internal14Proxy_IteratorINSA_13generic_proxyILi19ES1_EEEEP7SEXPRECxRKT_"
 "_ZN4Rcpp6VectorILi19ENS_15PreserveStorageEE4initEv"
 "_ZN4Rcpp6VectorILi19ENS_15PreserveStorageEE5beginEv"
 "_ZN4Rcpp6VectorILi19ENS_15PreserveStorageEE6createINS_6traits12named_objectIA1_cEENS5_IiEENS5_INS0_ILi16ES1_EEEEEES2_RKT_RKT0_RKT1_"
 "_ZN4Rcpp6VectorILi19ENS_15PreserveStorageEE6updateEP7SEXPREC"
 "_ZN4Rcpp6VectorILi19ENS_15PreserveStorageEEC1EP7SEXPREC"
 "_ZN4Rcpp6VectorILi19ENS_15PreserveStorageEEC1ERKi"
 "_ZN4Rcpp6VectorILi19ENS_15PreserveStorageEEC1ERKS2_"
 "_ZN4Rcpp6VectorILi19ENS_15PreserveStorageEED1Ev"
 "_ZN4Rcpp7ShelterIP7SEXPRECEC1Ev"
 "_ZN4Rcpp7ShelterIP7SEXPRECEclES2_"
 "_ZN4Rcpp7ShelterIP7SEXPRECED1Ev"
 "_ZN4Rcpp8ArgumentaSIA1_cEENS_6traits12named_objectIT_EERKS5_"
 "_ZN4Rcpp8ArgumentaSIiEENS_6traits12named_objectIT_EERKS4_"
 "_ZN4Rcpp8ArgumentaSINS_6VectorILi16ENS_15PreserveStorageEEEEENS_6traits12named_objectIT_EERKS7_"
 "_ZN4Rcpp8ArgumentC1ERKNSt7__cxx1112basic_stringIcSt11char_traitsIcESaIcEEE"
 "_ZN4Rcpp8ArgumentD1Ev"
 "_ZN4Rcpp8internal10basic_castILi13EEEP7SEXPRECS3_"
 "_ZN4Rcpp8internal10basic_castILi14EEEP7SEXPRECS3_"
 "_ZN4Rcpp8internal10resumeJumpEP7SEXPREC"
 "_ZN4Rcpp8internal11r_true_castILi13EEEP7SEXPRECS3_"
 "_ZN4Rcpp8internal11r_true_castILi14EEEP7SEXPRECS3_"
 "_ZN4Rcpp8internal11r_true_castILi16EEEP7SEXPRECS3_"
 "_ZN4Rcpp8internal11r_true_castILi19EEEP7SEXPRECS3_"
 "_ZN4Rcpp8internal12exitRNGScopeEv"
 "_ZN4Rcpp8internal12export_rangeIN9__gnu_cxx17__normal_iteratorIPdSt6vectorIdSaIdEEEEEEvP7SEXPRECT_"
 "_ZN4Rcpp8internal12export_rangeIN9__gnu_cxx17__normal_iteratorIPSt6vectorIdSaIdEES4_IS6_SaIS6_EEEEEEvP7SEXPRECT_"
 "_ZN4Rcpp8internal12export_rangeIN9__gnu_cxx17__normal_iteratorIPSt6vectorIS4_IdSaIdEESaIS6_EES4_IS8_SaIS8_EEEEEEvP7SEXPRECT_"
 "_ZN4Rcpp8internal12export_rangeIN9__gnu_cxx17__normal_iteratorIPSt6vectorIS4_IS4_IdSaIdEESaIS6_EESaIS8_EES4_ISA_SaISA_EEEEEEvP7SEXPRECT_"
 "_ZN4Rcpp8internal12export_rangeIN9__gnu_cxx17__normal_iteratorIPSt6vectorIS4_IS4_IS4_IdSaIdEESaIS6_EESaIS8_EESaISA_EES4_ISC_SaISC_EEEEEEvP7SEXPRECT_"
 "_ZN4Rcpp8internal12export_rangeIN9__gnu_cxx17__normal_iteratorIPSt6vectorIS4_IS4_IS4_IS4_IdSaIdEESaIS6_EESaIS8_EESaISA_EESaISC_EES4_ISE_SaISE_EEEEEEvP7SEXPRECT_"
 "_ZN4Rcpp8internal12export_rangeIN9__gnu_cxx17__normal_iteratorIPSt6vectorIS4_IS4_IS4_IS4_IS4_IdSaIdEESaIS6_EESaIS8_EESaISA_EESaISC_EESaISE_EES4_ISG_SaISG_EEEEEEvP7SEXPRECT_"
 "_ZN4Rcpp8internal12primitive_asIiEET_P7SEXPREC"
 "_ZN4Rcpp8internal12string_proxyILi16ENS_15PreserveStorageEE3setEP7SEXPREC"
 "_ZN4Rcpp8internal12string_proxyILi16ENS_15PreserveStorageEE3setINSt7__cxx1112basic_stringIcSt11char_traitsIcESaIcEEEEEvRKT_"
 "_ZN4Rcpp8internal12string_proxyILi16ENS_15PreserveStorageEE4moveEx"
 "_ZN4Rcpp8internal12string_proxyILi16ENS_15PreserveStorageEEaSIcEERS3_RKNSt7__cxx1112basic_stringIT_St11char_traitsIS8_ESaIS8_EEE"
 "_ZN4Rcpp8internal12string_proxyILi16ENS_15PreserveStorageEEC1ERKS3_"
 "_ZN4Rcpp8internal12string_proxyILi16ENS_15PreserveStorageEEC1ERNS_6VectorILi16ES2_EEx"
 "_ZN4Rcpp8internal13enterRNGScopeEv"
 "_ZN4Rcpp8internal13generic_proxyILi19ENS_15PreserveStorageEE3setEP7SEXPREC"
 "_ZN4Rcpp8internal13generic_proxyILi19ENS_15PreserveStorageEE4moveEx"
 "_ZN4Rcpp8internal13generic_proxyILi19ENS_15PreserveStorageEEaSEP7SEXPREC"
 "_ZN4Rcpp8internal13generic_proxyILi19ENS_15PreserveStorageEEC1ERKS3_"
 "_ZN4Rcpp8internal13generic_proxyILi19ENS_15PreserveStorageEEC1ERNS_6VectorILi19ES2_EEx"
 "_ZN4Rcpp8internal13make_charsexpINSt7__cxx1112basic_stringIcSt11char_traitsIcESaIcEEEEEP7SEXPRECRKT_"
 "_ZN4Rcpp8internal13r_init_vectorILi16EEEvP7SEXPREC"
 "_ZN4Rcpp8internal13r_init_vectorILi19EEEvP7SEXPREC"
 "_ZN4Rcpp8internal13wrap_dispatchIdEEP7SEXPRECRKT_NS_6traits23wrap_type_primitive_tagE"
 "_ZN4Rcpp8internal13wrap_dispatchIiEEP7SEXPRECRKT_NS_6traits23wrap_type_primitive_tagE"
 "_ZN4Rcpp8internal13wrap_dispatchINS_6ShieldIP7SEXPRECEEEES4_RKT_NS_6traits21wrap_type_unknown_tagE"
 "_ZN4Rcpp8internal13wrap_dispatchINS_6VectorILi16ENS_15PreserveStorageEEEEEP7SEXPRECRKT_NS_6traits21wrap_type_unknown_tagE"
 "_ZN4Rcpp8internal13wrap_dispatchIP7SEXPRECEES3_RKT_NS_6traits21wrap_type_unknown_tagE"
 "_ZN4Rcpp8internal14primitive_wrapIdEEP7SEXPRECRKT_"
 "_ZN4Rcpp8internal14primitive_wrapIiEEP7SEXPRECRKT_"
 "_ZN4Rcpp8internal14Proxy_IteratorINS0_12string_proxyILi16ENS_15PreserveStorageEEEEC1ERKS4_"
 "_ZN4Rcpp8internal14Proxy_IteratorINS0_12string_proxyILi16ENS_15PreserveStorageEEEEC1ERKS5_"
 "_ZN4Rcpp8internal14Proxy_IteratorINS0_12string_proxyILi16ENS_15PreserveStorageEEEEdeEv"
 "_ZN4Rcpp8internal14Proxy_IteratorINS0_12string_proxyILi16ENS_15PreserveStorageEEEEppEv"
 "_ZN4Rcpp8internal14Proxy_IteratorINS0_13generic_proxyILi19ENS_15PreserveStorageEEEEC1ERKS4_"
 "_ZN4Rcpp8internal14Proxy_IteratorINS0_13generic_proxyILi19ENS_15PreserveStorageEEEEC1ERKS5_"
 "_ZN4Rcpp8internal14Proxy_IteratorINS0_13generic_proxyILi19ENS_15PreserveStorageEEEEdeEv"
 "_ZN4Rcpp8internal14Proxy_IteratorINS0_13generic_proxyILi19ENS_15PreserveStorageEEEEppEv"
 "_ZN4Rcpp8internal14r_vector_startILi13EEEPNS_6traits12storage_typeIXT_EE4typeEP7SEXPREC"
 "_ZN4Rcpp8internal14r_vector_startILi14EEEPNS_6traits12storage_typeIXT_EE4typeEP7SEXPREC"
 "_ZN4Rcpp8internal14Rcpp_eval_implEP7SEXPRECS2_"
 "_ZN4Rcpp8internal16as_module_objectI10parametersEENS_6objectIT_EEP7SEXPREC"
 "_ZN4Rcpp8internal16getLongjumpTokenEP7SEXPREC"
 "_ZN4Rcpp8internal16NamedPlaceHolderC1Ev"
 "_ZN4Rcpp8internal16NamedPlaceHolderD1Ev"
 "_ZN4Rcpp8internal17is_Rcpp_eval_callEP7SEXPREC"
 "_ZN4Rcpp8internal18export_range__implIN9__gnu_cxx17__normal_iteratorIPdSt6vectorIdSaIdEEEEdEEvP7SEXPRECT_NS_6traits17integral_constantIbLb0EEE"
 "_ZN4Rcpp8internal18isLongjumpSentinelEP7SEXPREC"
 "_ZN4Rcpp8internal19check_single_stringEP7SEXPREC"
 "_ZN4Rcpp8internal19make_charsexp__implINSt7__cxx1112basic_stringIcSt11char_traitsIcESaIcEEEEEP7SEXPRECRKT_NS_6traits17integral_constantIbLb0EEE"
 "_ZN4Rcpp8internal19Rcpp_protected_evalEPv"
 "_ZN4Rcpp8internal19wrap_dispatch_eigenINS_6ShieldIP7SEXPRECEEEES4_RKT_NS_6traits17integral_constantIbLb0EEE"
 "_ZN4Rcpp8internal19wrap_dispatch_eigenINS_6VectorILi16ENS_15PreserveStorageEEEEEP7SEXPRECRKT_NS_6traits17integral_constantIbLb0EEE"
 "_ZN4Rcpp8internal19wrap_dispatch_eigenIP7SEXPRECEES3_RKT_NS_6traits17integral_constantIbLb0EEE"
 "_ZN4Rcpp8internal20primitive_wrap__implIdEEP7SEXPRECRKT_NS_6traits20r_type_primitive_tagE"
 "_ZN4Rcpp8internal20primitive_wrap__implIiEEP7SEXPRECRKT_NS_6traits20r_type_primitive_tagE"
 "_ZN4Rcpp8internal21wrap_dispatch_unknownINS_6ShieldIP7SEXPRECEEEES4_RKT_NS_6traits17integral_constantIbLb1EEE"
 "_ZN4Rcpp8internal21wrap_dispatch_unknownINS_6VectorILi16ENS_15PreserveStorageEEEEEP7SEXPRECRKT_NS_6traits17integral_constantIbLb1EEE"
 "_ZN4Rcpp8internal21wrap_dispatch_unknownIP7SEXPRECEES3_RKT_NS_6traits17integral_constantIbLb1EEE"
 "_ZN4Rcpp8internal22export_range__dispatchIN9__gnu_cxx17__normal_iteratorIPdSt6vectorIdSaIdEEEEdEEvP7SEXPRECT_NS_6traits20r_type_primitive_tagE"
 "_ZN4Rcpp8internal22export_range__dispatchIN9__gnu_cxx17__normal_iteratorIPSt6vectorIdSaIdEES4_IS6_SaIS6_EEEES6_EEvP7SEXPRECT_NS_6traits18r_type_generic_tagE"
 "_ZN4Rcpp8internal22export_range__dispatchIN9__gnu_cxx17__normal_iteratorIPSt6vectorIS4_IdSaIdEESaIS6_EES4_IS8_SaIS8_EEEES8_EEvP7SEXPRECT_NS_6traits18r_type_generic_tagE"
 "_ZN4Rcpp8internal22export_range__dispatchIN9__gnu_cxx17__normal_iteratorIPSt6vectorIS4_IS4_IdSaIdEESaIS6_EESaIS8_EES4_ISA_SaISA_EEEESA_EEvP7SEXPRECT_NS_6traits18r_type_generic_tagE"
 "_ZN4Rcpp8internal22export_range__dispatchIN9__gnu_cxx17__normal_iteratorIPSt6vectorIS4_IS4_IS4_IdSaIdEESaIS6_EESaIS8_EESaISA_EES4_ISC_SaISC_EEEESC_EEvP7SEXPRECT_NS_6traits18r_type_generic_tagE"
 "_ZN4Rcpp8internal22export_range__dispatchIN9__gnu_cxx17__normal_iteratorIPSt6vectorIS4_IS4_IS4_IS4_IdSaIdEESaIS6_EESaIS8_EESaISA_EESaISC_EES4_ISE_SaISE_EEEESE_EEvP7SEXPRECT_NS_6traits18r_type_generic_tagE"
 "_ZN4Rcpp8internal22export_range__dispatchIN9__gnu_cxx17__normal_iteratorIPSt6vectorIS4_IS4_IS4_IS4_IS4_IdSaIdEESaIS6_EESaIS8_EESaISA_EESaISC_EESaISE_EES4_ISG_SaISG_EEEESG_EEvP7SEXPRECT_NS_6traits18r_type_generic_tagE"
 "_ZN4Rcpp8internal23convert_using_rfunctionEP7SEXPRECPKc"
 "_ZN4Rcpp8internal25as_module_object_internalEP7SEXPREC"
 "_ZN4Rcpp8internal25generic_element_converterILi19EE3getEPKc"
 "_ZN4Rcpp8internal25generic_element_converterILi19EE3getIiEEP7SEXPRECRKT_"
 "_ZN4Rcpp8internal25generic_element_converterILi19EE3getINS_6VectorILi16ENS_15PreserveStorageEEEEEP7SEXPRECRKT_"
 "_ZN4Rcpp8internal26primitive_wrap__impl__castIdEEP7SEXPRECRKT_NS_6traits17integral_constantIbLb0EEE"
 "_ZN4Rcpp8internal26primitive_wrap__impl__castIiEEP7SEXPRECRKT_NS_6traits17integral_constantIbLb0EEE"
 "_ZN4Rcpp8internal28make_charsexp__impl__cstringEPKc"
 "_ZN4Rcpp8internal28make_charsexp__impl__cstringERKNSt7__cxx1112basic_stringIcSt11char_traitsIcESaIcEEE"
 "_ZN4Rcpp8internal2asIiEET_P7SEXPRECNS_6traits20r_type_primitive_tagE"
 "_ZN4Rcpp8internal2asINS_6VectorILi19ENS_15PreserveStorageEEEEET_P7SEXPRECNS_6traits18r_type_generic_tagE"
 "_ZN4Rcpp8internal2asINSt7__cxx1112basic_stringIcSt11char_traitsIcESaIcEEEEET_P7SEXPRECNS_6traits17r_type_string_tagE"
 "_ZN4Rcpp8internal2asIR10parametersEET_P7SEXPRECNS_6traits34r_type_module_object_reference_tagE"
 "_ZN4Rcpp8internal2asISt6vectorIdSaIdEEEET_P7SEXPRECNS_6traits18r_type_generic_tagE"
 "_ZN4Rcpp8internal2asISt6vectorIS2_IdSaIdEESaIS4_EEEET_P7SEXPRECNS_6traits18r_type_generic_tagE"
 "_ZN4Rcpp8internal2asISt6vectorIS2_IS2_IdSaIdEESaIS4_EESaIS6_EEEET_P7SEXPRECNS_6traits18r_type_generic_tagE"
 "_ZN4Rcpp8internal2asISt6vectorIS2_IS2_IS2_IdSaIdEESaIS4_EESaIS6_EESaIS8_EEEET_P7SEXPRECNS_6traits18r_type_generic_tagE"
 "_ZN4Rcpp8internal2asISt6vectorIS2_IS2_IS2_IS2_IdSaIdEESaIS4_EESaIS6_EESaIS8_EESaISA_EEEET_P7SEXPRECNS_6traits18r_type_generic_tagE"
 "_ZN4Rcpp8internal2asISt6vectorIS2_IS2_IS2_IS2_IS2_IdSaIdEESaIS4_EESaIS6_EESaIS8_EESaISA_EESaISC_EEEET_P7SEXPRECNS_6traits18r_type_generic_tagE"
 "_ZN4Rcpp8internal2asISt6vectorIS2_IS2_IS2_IS2_IS2_IS2_IdSaIdEESaIS4_EESaIS6_EESaIS8_EESaISA_EESaISC_EESaISE_EEEET_P7SEXPRECNS_6traits18r_type_generic_tagE"
 "_ZN4Rcpp8internal32wrap_dispatch_unknown_importableINS_6ShieldIP7SEXPRECEEEES4_RKT_NS_6traits17integral_constantIbLb0EEE"
 "_ZN4Rcpp8internal32wrap_dispatch_unknown_importableINS_6VectorILi16ENS_15PreserveStorageEEEEEP7SEXPRECRKT_NS_6traits17integral_constantIbLb0EEE"
 "_ZN4Rcpp8internal32wrap_dispatch_unknown_importableIP7SEXPRECEES3_RKT_NS_6traits17integral_constantIbLb0EEE"
 "_ZN4Rcpp8internal3nthEP7SEXPRECi"
 "_ZN4Rcpp8internal6casterIiiEET0_T_"
 "_ZN4Rcpp8internal8EvalDataC1EP7SEXPRECS3_"
 "_ZN4Rcpp8internal9as_stringINSt7__cxx1112basic_stringIcSt11char_traitsIcESaIcEEEEET_P7SEXPRECNS_6traits17integral_constantIbLb0EEE"
 "_ZN4Rcpp8internal9maybeJumpEPv8Rboolean"
 "_ZN4Rcpp8RNGScopeC1Ev"
 "_ZN4Rcpp8RNGScopeD1Ev"
 "_ZN4Rcpp8RostreamILb0EEC1Ev"
 "_ZN4Rcpp8RostreamILb0EED0Ev"
 "_ZN4Rcpp8RostreamILb0EED1Ev"
 "_ZN4Rcpp8RostreamILb1EEC1Ev"
 "_ZN4Rcpp8RostreamILb1EED0Ev"
 "_ZN4Rcpp8RostreamILb1EED1Ev"
 "_ZN4Rcpp9exception18record_stack_traceEv"
 "_ZN4Rcpp9exceptionC1EPKcb"
 "_ZN4Rcpp9exceptionD0Ev"
 "_ZN4Rcpp9exceptionD1Ev"
 "_ZN9__gnu_cxx13new_allocatorIdE10deallocateEPdy"
 "_ZN9__gnu_cxx13new_allocatorIdE8allocateEyPKv"
 "_ZN9__gnu_cxx13new_allocatorIdEC2ERKS1_"
 "_ZN9__gnu_cxx13new_allocatorIdEC2Ev"
 "_ZN9__gnu_cxx13new_allocatorIdED2Ev"
 "_ZN9__gnu_cxx13new_allocatorINSt7__cxx1112basic_stringIcSt11char_traitsIcESaIcEEEE10deallocateEPS6_y"
 "_ZN9__gnu_cxx13new_allocatorINSt7__cxx1112basic_stringIcSt11char_traitsIcESaIcEEEEC2Ev"
 "_ZN9__gnu_cxx13new_allocatorINSt7__cxx1112basic_stringIcSt11char_traitsIcESaIcEEEED2Ev"
 "_ZN9__gnu_cxx13new_allocatorISt6vectorIdSaIdEEE10deallocateEPS3_y"
 "_ZN9__gnu_cxx13new_allocatorISt6vectorIdSaIdEEE8allocateEyPKv"
 "_ZN9__gnu_cxx13new_allocatorISt6vectorIdSaIdEEEC2ERKS4_"
 "_ZN9__gnu_cxx13new_allocatorISt6vectorIdSaIdEEEC2Ev"
 "_ZN9__gnu_cxx13new_allocatorISt6vectorIdSaIdEEED2Ev"
 "_ZN9__gnu_cxx13new_allocatorISt6vectorIS1_IdSaIdEESaIS3_EEE10deallocateEPS5_y"
 "_ZN9__gnu_cxx13new_allocatorISt6vectorIS1_IdSaIdEESaIS3_EEE8allocateEyPKv"
 "_ZN9__gnu_cxx13new_allocatorISt6vectorIS1_IdSaIdEESaIS3_EEEC2ERKS6_"
 "_ZN9__gnu_cxx13new_allocatorISt6vectorIS1_IdSaIdEESaIS3_EEEC2Ev"
 "_ZN9__gnu_cxx13new_allocatorISt6vectorIS1_IdSaIdEESaIS3_EEED2Ev"
 "_ZN9__gnu_cxx13new_allocatorISt6vectorIS1_IS1_IdSaIdEESaIS3_EESaIS5_EEE10deallocateEPS7_y"
 "_ZN9__gnu_cxx13new_allocatorISt6vectorIS1_IS1_IdSaIdEESaIS3_EESaIS5_EEE8allocateEyPKv"
 "_ZN9__gnu_cxx13new_allocatorISt6vectorIS1_IS1_IdSaIdEESaIS3_EESaIS5_EEEC2ERKS8_"
 "_ZN9__gnu_cxx13new_allocatorISt6vectorIS1_IS1_IdSaIdEESaIS3_EESaIS5_EEEC2Ev"
 "_ZN9__gnu_cxx13new_allocatorISt6vectorIS1_IS1_IdSaIdEESaIS3_EESaIS5_EEED2Ev"
 "_ZN9__gnu_cxx13new_allocatorISt6vectorIS1_IS1_IS1_IdSaIdEESaIS3_EESaIS5_EESaIS7_EEE10deallocateEPS9_y"
 "_ZN9__gnu_cxx13new_allocatorISt6vectorIS1_IS1_IS1_IdSaIdEESaIS3_EESaIS5_EESaIS7_EEE8allocateEyPKv"
 "_ZN9__gnu_cxx13new_allocatorISt6vectorIS1_IS1_IS1_IdSaIdEESaIS3_EESaIS5_EESaIS7_EEEC2ERKSA_"
 "_ZN9__gnu_cxx13new_allocatorISt6vectorIS1_IS1_IS1_IdSaIdEESaIS3_EESaIS5_EESaIS7_EEEC2Ev"
 "_ZN9__gnu_cxx13new_allocatorISt6vectorIS1_IS1_IS1_IdSaIdEESaIS3_EESaIS5_EESaIS7_EEED2Ev"
 "_ZN9__gnu_cxx13new_allocatorISt6vectorIS1_IS1_IS1_IS1_IdSaIdEESaIS3_EESaIS5_EESaIS7_EESaIS9_EEE10deallocateEPSB_y"
 "_ZN9__gnu_cxx13new_allocatorISt6vectorIS1_IS1_IS1_IS1_IdSaIdEESaIS3_EESaIS5_EESaIS7_EESaIS9_EEE8allocateEyPKv"
 "_ZN9__gnu_cxx13new_allocatorISt6vectorIS1_IS1_IS1_IS1_IdSaIdEESaIS3_EESaIS5_EESaIS7_EESaIS9_EEEC2ERKSC_"
 "_ZN9__gnu_cxx13new_allocatorISt6vectorIS1_IS1_IS1_IS1_IdSaIdEESaIS3_EESaIS5_EESaIS7_EESaIS9_EEEC2Ev"
 "_ZN9__gnu_cxx13new_allocatorISt6vectorIS1_IS1_IS1_IS1_IdSaIdEESaIS3_EESaIS5_EESaIS7_EESaIS9_EEED2Ev"
 "_ZN9__gnu_cxx13new_allocatorISt6vectorIS1_IS1_IS1_IS1_IS1_IdSaIdEESaIS3_EESaIS5_EESaIS7_EESaIS9_EESaISB_EEE10deallocateEPSD_y"
 "_ZN9__gnu_cxx13new_allocatorISt6vectorIS1_IS1_IS1_IS1_IS1_IdSaIdEESaIS3_EESaIS5_EESaIS7_EESaIS9_EESaISB_EEE8allocateEyPKv"
 "_ZN9__gnu_cxx13new_allocatorISt6vectorIS1_IS1_IS1_IS1_IS1_IdSaIdEESaIS3_EESaIS5_EESaIS7_EESaIS9_EESaISB_EEEC2ERKSE_"
 "_ZN9__gnu_cxx13new_allocatorISt6vectorIS1_IS1_IS1_IS1_IS1_IdSaIdEESaIS3_EESaIS5_EESaIS7_EESaIS9_EESaISB_EEEC2Ev"
 "_ZN9__gnu_cxx13new_allocatorISt6vectorIS1_IS1_IS1_IS1_IS1_IdSaIdEESaIS3_EESaIS5_EESaIS7_EESaIS9_EESaISB_EEED2Ev"
 "_ZN9__gnu_cxx17__normal_iteratorIPdSt6vectorIdSaIdEEEC1ERKS1_"
 "_ZN9__gnu_cxx17__normal_iteratorIPKNSt7__cxx1112basic_stringIcSt11char_traitsIcESaIcEEESt6vectorIS6_SaIS6_EEEC1ERKS8_"
 "_ZN9__gnu_cxx17__normal_iteratorIPSt6vectorIdSaIdEES1_IS3_SaIS3_EEEC1ERKS4_"
 "_ZN9__gnu_cxx17__normal_iteratorIPSt6vectorIdSaIdEES1_IS3_SaIS3_EEEppEv"
 "_ZN9__gnu_cxx17__normal_iteratorIPSt6vectorIS1_IdSaIdEESaIS3_EES1_IS5_SaIS5_EEEC1ERKS6_"
 "_ZN9__gnu_cxx17__normal_iteratorIPSt6vectorIS1_IdSaIdEESaIS3_EES1_IS5_SaIS5_EEEppEv"
 "_ZN9__gnu_cxx17__normal_iteratorIPSt6vectorIS1_IS1_IdSaIdEESaIS3_EESaIS5_EES1_IS7_SaIS7_EEEC1ERKS8_"
 "_ZN9__gnu_cxx17__normal_iteratorIPSt6vectorIS1_IS1_IdSaIdEESaIS3_EESaIS5_EES1_IS7_SaIS7_EEEppEv"
 "_ZN9__gnu_cxx17__normal_iteratorIPSt6vectorIS1_IS1_IS1_IdSaIdEESaIS3_EESaIS5_EESaIS7_EES1_IS9_SaIS9_EEEC1ERKSA_"
 "_ZN9__gnu_cxx17__normal_iteratorIPSt6vectorIS1_IS1_IS1_IdSaIdEESaIS3_EESaIS5_EESaIS7_EES1_IS9_SaIS9_EEEppEv"
 "_ZN9__gnu_cxx17__normal_iteratorIPSt6vectorIS1_IS1_IS1_IS1_IdSaIdEESaIS3_EESaIS5_EESaIS7_EESaIS9_EES1_ISB_SaISB_EEEC1ERKSC_"
 "_ZN9__gnu_cxx17__normal_iteratorIPSt6vectorIS1_IS1_IS1_IS1_IdSaIdEESaIS3_EESaIS5_EESaIS7_EESaIS9_EES1_ISB_SaISB_EEEppEv"
 "_ZN9__gnu_cxx17__normal_iteratorIPSt6vectorIS1_IS1_IS1_IS1_IS1_IdSaIdEESaIS3_EESaIS5_EESaIS7_EESaIS9_EESaISB_EES1_ISD_SaISD_EEEC1ERKSE_"
 "_ZN9__gnu_cxx17__normal_iteratorIPSt6vectorIS1_IS1_IS1_IS1_IS1_IdSaIdEESaIS3_EESaIS5_EESaIS7_EESaIS9_EESaISB_EES1_ISD_SaISD_EEEppEv"
 "_ZNK10tinyformat6detail9FormatArg5toIntEv"
 "_ZNK10tinyformat6detail9FormatArg6formatERSoPKcS4_i"
 "_ZNK4Rcpp14not_compatible4whatEv"
 "_ZNK4Rcpp15PreserveStorageINS_12RObject_ImplIS0_EEEcvP7SEXPRECEv"
 "_ZNK4Rcpp15PreserveStorageINS_16Environment_ImplIS0_EEE5get__Ev"
 "_ZNK4Rcpp15PreserveStorageINS_6VectorILi16ES0_EEE5get__Ev"
 "_ZNK4Rcpp15PreserveStorageINS_6VectorILi16ES0_EEEcvP7SEXPRECEv"
 "_ZNK4Rcpp15PreserveStorageINS_6VectorILi19ES0_EEE5get__Ev"
 "_ZNK4Rcpp15PreserveStorageINS_6VectorILi19ES0_EEEcvP7SEXPRECEv"
 "_ZNK4Rcpp16Environment_ImplINS_15PreserveStorageEE3getERKNSt7__cxx1112basic_stringIcSt11char_traitsIcESaIcEEE"
 "_ZNK4Rcpp5ArmorIP7SEXPRECEcvS2_Ev"
 "_ZNK4Rcpp6ShieldIP7SEXPRECEcvS2_Ev"
 "_ZNK4Rcpp6traits11proxy_cacheILi16ENS_15PreserveStorageEE3getEv"
 "_ZNK4Rcpp6traits11proxy_cacheILi19ENS_15PreserveStorageEE3getEv"
 "_ZNK4Rcpp8internal16NamedPlaceHolderixERKNSt7__cxx1112basic_stringIcSt11char_traitsIcESaIcEEE"
 "_ZNK4Rcpp9exception12include_callEv"
 "_ZNK4Rcpp9exception21copy_stack_trace_to_rEv"
 "_ZNK4Rcpp9exception4whatEv"
 "_ZNK9__gnu_cxx13new_allocatorIdE11_M_max_sizeEv"
 "_ZNK9__gnu_cxx13new_allocatorIdE8max_sizeEv"
 "_ZNK9__gnu_cxx13new_allocatorISt6vectorIdSaIdEEE11_M_max_sizeEv"
 "_ZNK9__gnu_cxx13new_allocatorISt6vectorIdSaIdEEE8max_sizeEv"
 "_ZNK9__gnu_cxx13new_allocatorISt6vectorIS1_IdSaIdEESaIS3_EEE11_M_max_sizeEv"
 "_ZNK9__gnu_cxx13new_allocatorISt6vectorIS1_IdSaIdEESaIS3_EEE8max_sizeEv"
 "_ZNK9__gnu_cxx13new_allocatorISt6vectorIS1_IS1_IdSaIdEESaIS3_EESaIS5_EEE11_M_max_sizeEv"
 "_ZNK9__gnu_cxx13new_allocatorISt6vectorIS1_IS1_IdSaIdEESaIS3_EESaIS5_EEE8max_sizeEv"
 "_ZNK9__gnu_cxx13new_allocatorISt6vectorIS1_IS1_IS1_IdSaIdEESaIS3_EESaIS5_EESaIS7_EEE11_M_max_sizeEv"
 "_ZNK9__gnu_cxx13new_allocatorISt6vectorIS1_IS1_IS1_IdSaIdEESaIS3_EESaIS5_EESaIS7_EEE8max_sizeEv"
 "_ZNK9__gnu_cxx13new_allocatorISt6vectorIS1_IS1_IS1_IS1_IdSaIdEESaIS3_EESaIS5_EESaIS7_EESaIS9_EEE11_M_max_sizeEv"
 "_ZNK9__gnu_cxx13new_allocatorISt6vectorIS1_IS1_IS1_IS1_IdSaIdEESaIS3_EESaIS5_EESaIS7_EESaIS9_EEE8max_sizeEv"
 "_ZNK9__gnu_cxx13new_allocatorISt6vectorIS1_IS1_IS1_IS1_IS1_IdSaIdEESaIS3_EESaIS5_EESaIS7_EESaIS9_EESaISB_EEE11_M_max_sizeEv"
 "_ZNK9__gnu_cxx13new_allocatorISt6vectorIS1_IS1_IS1_IS1_IS1_IdSaIdEESaIS3_EESaIS5_EESaIS7_EESaIS9_EESaISB_EEE8max_sizeEv"
 "_ZNK9__gnu_cxx17__normal_iteratorIPdSt6vectorIdSaIdEEE4baseEv"
 "_ZNK9__gnu_cxx17__normal_iteratorIPdSt6vectorIdSaIdEEEplEx"
 "_ZNK9__gnu_cxx17__normal_iteratorIPKNSt7__cxx1112basic_stringIcSt11char_traitsIcESaIcEEESt6vectorIS6_SaIS6_EEE4baseEv"
 "_ZNK9__gnu_cxx17__normal_iteratorIPSt6vectorIdSaIdEES1_IS3_SaIS3_EEEdeEv"
 "_ZNK9__gnu_cxx17__normal_iteratorIPSt6vectorIS1_IdSaIdEESaIS3_EES1_IS5_SaIS5_EEEdeEv"
 "_ZNK9__gnu_cxx17__normal_iteratorIPSt6vectorIS1_IS1_IdSaIdEESaIS3_EESaIS5_EES1_IS7_SaIS7_EEEdeEv"
 "_ZNK9__gnu_cxx17__normal_iteratorIPSt6vectorIS1_IS1_IS1_IdSaIdEESaIS3_EESaIS5_EESaIS7_EES1_IS9_SaIS9_EEEdeEv"
 "_ZNK9__gnu_cxx17__normal_iteratorIPSt6vectorIS1_IS1_IS1_IS1_IdSaIdEESaIS3_EESaIS5_EESaIS7_EESaIS9_EES1_ISB_SaISB_EEEdeEv"
 "_ZNK9__gnu_cxx17__normal_iteratorIPSt6vectorIS1_IS1_IS1_IS1_IS1_IdSaIdEESaIS3_EESaIS5_EESaIS7_EESaIS9_EESaISB_EES1_ISD_SaISD_EEEdeEv"
 "_ZNKSt12_Vector_baseIdSaIdEE13get_allocatorEv"
 "_ZNKSt12_Vector_baseIdSaIdEE19_M_get_Tp_allocatorEv"
 "_ZNKSt12_Vector_baseISt6vectorIdSaIdEESaIS2_EE13get_allocatorEv"
 "_ZNKSt12_Vector_baseISt6vectorIdSaIdEESaIS2_EE19_M_get_Tp_allocatorEv"
 "_ZNKSt12_Vector_baseISt6vectorIS0_IdSaIdEESaIS2_EESaIS4_EE13get_allocatorEv"
 "_ZNKSt12_Vector_baseISt6vectorIS0_IdSaIdEESaIS2_EESaIS4_EE19_M_get_Tp_allocatorEv"
 "_ZNKSt12_Vector_baseISt6vectorIS0_IS0_IdSaIdEESaIS2_EESaIS4_EESaIS6_EE13get_allocatorEv"
 "_ZNKSt12_Vector_baseISt6vectorIS0_IS0_IdSaIdEESaIS2_EESaIS4_EESaIS6_EE19_M_get_Tp_allocatorEv"
 "_ZNKSt12_Vector_baseISt6vectorIS0_IS0_IS0_IdSaIdEESaIS2_EESaIS4_EESaIS6_EESaIS8_EE13get_allocatorEv"
 "_ZNKSt12_Vector_baseISt6vectorIS0_IS0_IS0_IdSaIdEESaIS2_EESaIS4_EESaIS6_EESaIS8_EE19_M_get_Tp_allocatorEv"
 "_ZNKSt12_Vector_baseISt6vectorIS0_IS0_IS0_IS0_IdSaIdEESaIS2_EESaIS4_EESaIS6_EESaIS8_EESaISA_EE13get_allocatorEv"
 "_ZNKSt12_Vector_baseISt6vectorIS0_IS0_IS0_IS0_IdSaIdEESaIS2_EESaIS4_EESaIS6_EESaIS8_EESaISA_EE19_M_get_Tp_allocatorEv"
 "_ZNKSt6vectorINSt7__cxx1112basic_stringIcSt11char_traitsIcESaIcEEESaIS5_EE3endEv"
 "_ZNKSt6vectorINSt7__cxx1112basic_stringIcSt11char_traitsIcESaIcEEESaIS5_EE4sizeEv"
 "_ZNKSt6vectorINSt7__cxx1112basic_stringIcSt11char_traitsIcESaIcEEESaIS5_EE5beginEv"
 "_ZNKSt8ios_base5flagsEv"
 "_ZNKSt8ios_base5widthEv"
 "_ZNKSt8ios_base9precisionEv"
 "_ZNKSt9type_info4nameEv"
 "_ZNSaIdEC1ERKS_"
 "_ZNSaIdEC1Ev"
 "_ZNSaIdEC2ERKS_"
 "_ZNSaIdEC2Ev"
 "_ZNSaIdED1Ev"
 "_ZNSaIdED2Ev"
 "_ZNSaINSt7__cxx1112basic_stringIcSt11char_traitsIcESaIcEEEEC2Ev"
 "_ZNSaINSt7__cxx1112basic_stringIcSt11char_traitsIcESaIcEEEED2Ev"
 "_ZNSaISt6vectorIdSaIdEEEC1ERKS2_"
 "_ZNSaISt6vectorIdSaIdEEEC1Ev"
 "_ZNSaISt6vectorIdSaIdEEEC2ERKS2_"
 "_ZNSaISt6vectorIdSaIdEEEC2Ev"
 "_ZNSaISt6vectorIdSaIdEEED1Ev"
 "_ZNSaISt6vectorIdSaIdEEED2Ev"
 "_ZNSaISt6vectorIS_IdSaIdEESaIS1_EEEC1ERKS4_"
 "_ZNSaISt6vectorIS_IdSaIdEESaIS1_EEEC1Ev"
 "_ZNSaISt6vectorIS_IdSaIdEESaIS1_EEEC2ERKS4_"
 "_ZNSaISt6vectorIS_IdSaIdEESaIS1_EEEC2Ev"
 "_ZNSaISt6vectorIS_IdSaIdEESaIS1_EEED1Ev"
 "_ZNSaISt6vectorIS_IdSaIdEESaIS1_EEED2Ev"
 "_ZNSaISt6vectorIS_IS_IdSaIdEESaIS1_EESaIS3_EEEC1ERKS6_"
 "_ZNSaISt6vectorIS_IS_IdSaIdEESaIS1_EESaIS3_EEEC1Ev"
 "_ZNSaISt6vectorIS_IS_IdSaIdEESaIS1_EESaIS3_EEEC2ERKS6_"
 "_ZNSaISt6vectorIS_IS_IdSaIdEESaIS1_EESaIS3_EEEC2Ev"
 "_ZNSaISt6vectorIS_IS_IdSaIdEESaIS1_EESaIS3_EEED1Ev"
 "_ZNSaISt6vectorIS_IS_IdSaIdEESaIS1_EESaIS3_EEED2Ev"
 "_ZNSaISt6vectorIS_IS_IS_IdSaIdEESaIS1_EESaIS3_EESaIS5_EEEC1ERKS8_"
 "_ZNSaISt6vectorIS_IS_IS_IdSaIdEESaIS1_EESaIS3_EESaIS5_EEEC1Ev"
 "_ZNSaISt6vectorIS_IS_IS_IdSaIdEESaIS1_EESaIS3_EESaIS5_EEEC2ERKS8_"
 "_ZNSaISt6vectorIS_IS_IS_IdSaIdEESaIS1_EESaIS3_EESaIS5_EEEC2Ev"
 "_ZNSaISt6vectorIS_IS_IS_IdSaIdEESaIS1_EESaIS3_EESaIS5_EEED1Ev"
 "_ZNSaISt6vectorIS_IS_IS_IdSaIdEESaIS1_EESaIS3_EESaIS5_EEED2Ev"
 "_ZNSaISt6vectorIS_IS_IS_IS_IdSaIdEESaIS1_EESaIS3_EESaIS5_EESaIS7_EEEC1ERKSA_"
 "_ZNSaISt6vectorIS_IS_IS_IS_IdSaIdEESaIS1_EESaIS3_EESaIS5_EESaIS7_EEEC1Ev"
 "_ZNSaISt6vectorIS_IS_IS_IS_IdSaIdEESaIS1_EESaIS3_EESaIS5_EESaIS7_EEEC2ERKSA_"
 "_ZNSaISt6vectorIS_IS_IS_IS_IdSaIdEESaIS1_EESaIS3_EESaIS5_EESaIS7_EEEC2Ev"
 "_ZNSaISt6vectorIS_IS_IS_IS_IdSaIdEESaIS1_EESaIS3_EESaIS5_EESaIS7_EEED1Ev"
 "_ZNSaISt6vectorIS_IS_IS_IS_IdSaIdEESaIS1_EESaIS3_EESaIS5_EESaIS7_EEED2Ev"
 "_ZNSaISt6vectorIS_IS_IS_IS_IS_IdSaIdEESaIS1_EESaIS3_EESaIS5_EESaIS7_EESaIS9_EEEC1ERKSC_"
 "_ZNSaISt6vectorIS_IS_IS_IS_IS_IdSaIdEESaIS1_EESaIS3_EESaIS5_EESaIS7_EESaIS9_EEEC1Ev"
 "_ZNSaISt6vectorIS_IS_IS_IS_IS_IdSaIdEESaIS1_EESaIS3_EESaIS5_EESaIS7_EESaIS9_EEEC2ERKSC_"
 "_ZNSaISt6vectorIS_IS_IS_IS_IS_IdSaIdEESaIS1_EESaIS3_EESaIS5_EESaIS7_EESaIS9_EEED1Ev"
 "_ZNSaISt6vectorIS_IS_IS_IS_IS_IdSaIdEESaIS1_EESaIS3_EESaIS5_EESaIS7_EESaIS9_EEED2Ev"
 "_ZNSt11__copy_moveILb0ELb0ESt26random_access_iterator_tagE8__copy_mIPKNSt7__cxx1112basic_stringIcSt11char_traitsIcESaIcEEEN4Rcpp8internal14Proxy_IteratorINSC_12string_proxyILi16ENSB_15PreserveStorageEEEEEEET0_T_SJ_SI_"
 "_ZNSt11__copy_moveILb0ELb1ESt26random_access_iterator_tagE8__copy_mIdEEPT_PKS3_S6_S4_"
 "_ZNSt11char_traitsIcE12to_char_typeERKi"
 "_ZNSt11char_traitsIcE3eofEv"
 "_ZNSt12_Destroy_auxILb0EE9__destroyIPNSt7__cxx1112basic_stringIcSt11char_traitsIcESaIcEEEEEvT_S9_"
 "_ZNSt12_Destroy_auxILb0EE9__destroyIPSt6vectorIdSaIdEEEEvT_S6_"
 "_ZNSt12_Destroy_auxILb0EE9__destroyIPSt6vectorIS2_IdSaIdEESaIS4_EEEEvT_S8_"
 "_ZNSt12_Destroy_auxILb0EE9__destroyIPSt6vectorIS2_IS2_IdSaIdEESaIS4_EESaIS6_EEEEvT_SA_"
 "_ZNSt12_Destroy_auxILb0EE9__destroyIPSt6vectorIS2_IS2_IS2_IdSaIdEESaIS4_EESaIS6_EESaIS8_EEEEvT_SC_"
 "_ZNSt12_Destroy_auxILb0EE9__destroyIPSt6vectorIS2_IS2_IS2_IS2_IdSaIdEESaIS4_EESaIS6_EESaIS8_EESaISA_EEEEvT_SE_"
 "_ZNSt12_Destroy_auxILb0EE9__destroyIPSt6vectorIS2_IS2_IS2_IS2_IS2_IdSaIdEESaIS4_EESaIS6_EESaIS8_EESaISA_EESaISC_EEEEvT_SG_"
 "_ZNSt12_Destroy_auxILb1EE9__destroyIPdEEvT_S3_"
 "_ZNSt12_Vector_baseIdSaIdEE11_M_allocateEy"
 "_ZNSt12_Vector_baseIdSaIdEE12_Vector_implC1EOS2_"
 "_ZNSt12_Vector_baseIdSaIdEE12_Vector_implC1ERKS0_"
 "_ZNSt12_Vector_baseIdSaIdEE12_Vector_implC1Ev"
 "_ZNSt12_Vector_baseIdSaIdEE12_Vector_implD1Ev"
 "_ZNSt12_Vector_baseIdSaIdEE13_M_deallocateEPdy"
 "_ZNSt12_Vector_baseIdSaIdEE17_M_create_storageEy"
 "_ZNSt12_Vector_baseIdSaIdEE17_Vector_impl_data12_M_copy_dataERKS2_"
 "_ZNSt12_Vector_baseIdSaIdEE17_Vector_impl_data12_M_swap_dataERS2_"
 "_ZNSt12_Vector_baseIdSaIdEE17_Vector_impl_dataC1Ev"
 "_ZNSt12_Vector_baseIdSaIdEE17_Vector_impl_dataC2EOS2_"
 "_ZNSt12_Vector_baseIdSaIdEE17_Vector_impl_dataC2Ev"
 "_ZNSt12_Vector_baseIdSaIdEE19_M_get_Tp_allocatorEv"
 "_ZNSt12_Vector_baseIdSaIdEEC2EOS1_"
 "_ZNSt12_Vector_baseIdSaIdEEC2ERKS0_"
 "_ZNSt12_Vector_baseIdSaIdEEC2Ev"
 "_ZNSt12_Vector_baseIdSaIdEEC2EyRKS0_"
 "_ZNSt12_Vector_baseIdSaIdEED2Ev"
 "_ZNSt12_Vector_baseINSt7__cxx1112basic_stringIcSt11char_traitsIcESaIcEEESaIS5_EE12_Vector_implC1Ev"
 "_ZNSt12_Vector_baseINSt7__cxx1112basic_stringIcSt11char_traitsIcESaIcEEESaIS5_EE12_Vector_implD1Ev"
 "_ZNSt12_Vector_baseINSt7__cxx1112basic_stringIcSt11char_traitsIcESaIcEEESaIS5_EE13_M_deallocateEPS5_y"
 "_ZNSt12_Vector_baseINSt7__cxx1112basic_stringIcSt11char_traitsIcESaIcEEESaIS5_EE17_Vector_impl_dataC2Ev"
 "_ZNSt12_Vector_baseINSt7__cxx1112basic_stringIcSt11char_traitsIcESaIcEEESaIS5_EE19_M_get_Tp_allocatorEv"
 "_ZNSt12_Vector_baseINSt7__cxx1112basic_stringIcSt11char_traitsIcESaIcEEESaIS5_EEC2Ev"
 "_ZNSt12_Vector_baseINSt7__cxx1112basic_stringIcSt11char_traitsIcESaIcEEESaIS5_EED2Ev"
 "_ZNSt12_Vector_baseISt6vectorIdSaIdEESaIS2_EE11_M_allocateEy"
 "_ZNSt12_Vector_baseISt6vectorIdSaIdEESaIS2_EE12_Vector_implC1ERKS3_"
 "_ZNSt12_Vector_baseISt6vectorIdSaIdEESaIS2_EE12_Vector_implC1Ev"
 "_ZNSt12_Vector_baseISt6vectorIdSaIdEESaIS2_EE12_Vector_implD1Ev"
 "_ZNSt12_Vector_baseISt6vectorIdSaIdEESaIS2_EE13_M_deallocateEPS2_y"
 "_ZNSt12_Vector_baseISt6vectorIdSaIdEESaIS2_EE17_M_create_storageEy"
 "_ZNSt12_Vector_baseISt6vectorIdSaIdEESaIS2_EE17_Vector_impl_data12_M_copy_dataERKS5_"
 "_ZNSt12_Vector_baseISt6vectorIdSaIdEESaIS2_EE17_Vector_impl_data12_M_swap_dataERS5_"
 "_ZNSt12_Vector_baseISt6vectorIdSaIdEESaIS2_EE17_Vector_impl_dataC1Ev"
 "_ZNSt12_Vector_baseISt6vectorIdSaIdEESaIS2_EE17_Vector_impl_dataC2Ev"
 "_ZNSt12_Vector_baseISt6vectorIdSaIdEESaIS2_EE19_M_get_Tp_allocatorEv"
 "_ZNSt12_Vector_baseISt6vectorIdSaIdEESaIS2_EEC2ERKS3_"
 "_ZNSt12_Vector_baseISt6vectorIdSaIdEESaIS2_EEC2Ev"
 "_ZNSt12_Vector_baseISt6vectorIdSaIdEESaIS2_EEC2EyRKS3_"
 "_ZNSt12_Vector_baseISt6vectorIdSaIdEESaIS2_EED2Ev"
 "_ZNSt12_Vector_baseISt6vectorIS0_IdSaIdEESaIS2_EESaIS4_EE11_M_allocateEy"
 "_ZNSt12_Vector_baseISt6vectorIS0_IdSaIdEESaIS2_EESaIS4_EE12_Vector_implC1ERKS5_"
 "_ZNSt12_Vector_baseISt6vectorIS0_IdSaIdEESaIS2_EESaIS4_EE12_Vector_implC1Ev"
 "_ZNSt12_Vector_baseISt6vectorIS0_IdSaIdEESaIS2_EESaIS4_EE12_Vector_implD1Ev"
 "_ZNSt12_Vector_baseISt6vectorIS0_IdSaIdEESaIS2_EESaIS4_EE13_M_deallocateEPS4_y"
 "_ZNSt12_Vector_baseISt6vectorIS0_IdSaIdEESaIS2_EESaIS4_EE17_M_create_storageEy"
 "_ZNSt12_Vector_baseISt6vectorIS0_IdSaIdEESaIS2_EESaIS4_EE17_Vector_impl_data12_M_copy_dataERKS7_"
 "_ZNSt12_Vector_baseISt6vectorIS0_IdSaIdEESaIS2_EESaIS4_EE17_Vector_impl_data12_M_swap_dataERS7_"
 "_ZNSt12_Vector_baseISt6vectorIS0_IdSaIdEESaIS2_EESaIS4_EE17_Vector_impl_dataC1Ev"
 "_ZNSt12_Vector_baseISt6vectorIS0_IdSaIdEESaIS2_EESaIS4_EE17_Vector_impl_dataC2Ev"
 "_ZNSt12_Vector_baseISt6vectorIS0_IdSaIdEESaIS2_EESaIS4_EE19_M_get_Tp_allocatorEv"
 "_ZNSt12_Vector_baseISt6vectorIS0_IdSaIdEESaIS2_EESaIS4_EEC2ERKS5_"
 "_ZNSt12_Vector_baseISt6vectorIS0_IdSaIdEESaIS2_EESaIS4_EEC2Ev"
 "_ZNSt12_Vector_baseISt6vectorIS0_IdSaIdEESaIS2_EESaIS4_EEC2EyRKS5_"
 "_ZNSt12_Vector_baseISt6vectorIS0_IdSaIdEESaIS2_EESaIS4_EED2Ev"
 "_ZNSt12_Vector_baseISt6vectorIS0_IS0_IdSaIdEESaIS2_EESaIS4_EESaIS6_EE11_M_allocateEy"
 "_ZNSt12_Vector_baseISt6vectorIS0_IS0_IdSaIdEESaIS2_EESaIS4_EESaIS6_EE12_Vector_implC1ERKS7_"
 "_ZNSt12_Vector_baseISt6vectorIS0_IS0_IdSaIdEESaIS2_EESaIS4_EESaIS6_EE12_Vector_implC1Ev"
 "_ZNSt12_Vector_baseISt6vectorIS0_IS0_IdSaIdEESaIS2_EESaIS4_EESaIS6_EE12_Vector_implD1Ev"
 "_ZNSt12_Vector_baseISt6vectorIS0_IS0_IdSaIdEESaIS2_EESaIS4_EESaIS6_EE13_M_deallocateEPS6_y"
 "_ZNSt12_Vector_baseISt6vectorIS0_IS0_IdSaIdEESaIS2_EESaIS4_EESaIS6_EE17_M_create_storageEy"
 "_ZNSt12_Vector_baseISt6vectorIS0_IS0_IdSaIdEESaIS2_EESaIS4_EESaIS6_EE17_Vector_impl_data12_M_copy_dataERKS9_"
 "_ZNSt12_Vector_baseISt6vectorIS0_IS0_IdSaIdEESaIS2_EESaIS4_EESaIS6_EE17_Vector_impl_data12_M_swap_dataERS9_"
 "_ZNSt12_Vector_baseISt6vectorIS0_IS0_IdSaIdEESaIS2_EESaIS4_EESaIS6_EE17_Vector_impl_dataC1Ev"
 "_ZNSt12_Vector_baseISt6vectorIS0_IS0_IdSaIdEESaIS2_EESaIS4_EESaIS6_EE17_Vector_impl_dataC2Ev"
 "_ZNSt12_Vector_baseISt6vectorIS0_IS0_IdSaIdEESaIS2_EESaIS4_EESaIS6_EE19_M_get_Tp_allocatorEv"
 "_ZNSt12_Vector_baseISt6vectorIS0_IS0_IdSaIdEESaIS2_EESaIS4_EESaIS6_EEC2ERKS7_"
 "_ZNSt12_Vector_baseISt6vectorIS0_IS0_IdSaIdEESaIS2_EESaIS4_EESaIS6_EEC2Ev"
 "_ZNSt12_Vector_baseISt6vectorIS0_IS0_IdSaIdEESaIS2_EESaIS4_EESaIS6_EEC2EyRKS7_"
 "_ZNSt12_Vector_baseISt6vectorIS0_IS0_IdSaIdEESaIS2_EESaIS4_EESaIS6_EED2Ev"
 "_ZNSt12_Vector_baseISt6vectorIS0_IS0_IS0_IdSaIdEESaIS2_EESaIS4_EESaIS6_EESaIS8_EE11_M_allocateEy"
 "_ZNSt12_Vector_baseISt6vectorIS0_IS0_IS0_IdSaIdEESaIS2_EESaIS4_EESaIS6_EESaIS8_EE12_Vector_implC1ERKS9_"
 "_ZNSt12_Vector_baseISt6vectorIS0_IS0_IS0_IdSaIdEESaIS2_EESaIS4_EESaIS6_EESaIS8_EE12_Vector_implC1Ev"
 "_ZNSt12_Vector_baseISt6vectorIS0_IS0_IS0_IdSaIdEESaIS2_EESaIS4_EESaIS6_EESaIS8_EE12_Vector_implD1Ev"
 "_ZNSt12_Vector_baseISt6vectorIS0_IS0_IS0_IdSaIdEESaIS2_EESaIS4_EESaIS6_EESaIS8_EE13_M_deallocateEPS8_y"
 "_ZNSt12_Vector_baseISt6vectorIS0_IS0_IS0_IdSaIdEESaIS2_EESaIS4_EESaIS6_EESaIS8_EE17_M_create_storageEy"
 "_ZNSt12_Vector_baseISt6vectorIS0_IS0_IS0_IdSaIdEESaIS2_EESaIS4_EESaIS6_EESaIS8_EE17_Vector_impl_data12_M_copy_dataERKSB_"
 "_ZNSt12_Vector_baseISt6vectorIS0_IS0_IS0_IdSaIdEESaIS2_EESaIS4_EESaIS6_EESaIS8_EE17_Vector_impl_data12_M_swap_dataERSB_"
 "_ZNSt12_Vector_baseISt6vectorIS0_IS0_IS0_IdSaIdEESaIS2_EESaIS4_EESaIS6_EESaIS8_EE17_Vector_impl_dataC1Ev"
 "_ZNSt12_Vector_baseISt6vectorIS0_IS0_IS0_IdSaIdEESaIS2_EESaIS4_EESaIS6_EESaIS8_EE17_Vector_impl_dataC2Ev"
 "_ZNSt12_Vector_baseISt6vectorIS0_IS0_IS0_IdSaIdEESaIS2_EESaIS4_EESaIS6_EESaIS8_EE19_M_get_Tp_allocatorEv"
 "_ZNSt12_Vector_baseISt6vectorIS0_IS0_IS0_IdSaIdEESaIS2_EESaIS4_EESaIS6_EESaIS8_EEC2ERKS9_"
 "_ZNSt12_Vector_baseISt6vectorIS0_IS0_IS0_IdSaIdEESaIS2_EESaIS4_EESaIS6_EESaIS8_EEC2Ev"
 "_ZNSt12_Vector_baseISt6vectorIS0_IS0_IS0_IdSaIdEESaIS2_EESaIS4_EESaIS6_EESaIS8_EEC2EyRKS9_"
 "_ZNSt12_Vector_baseISt6vectorIS0_IS0_IS0_IdSaIdEESaIS2_EESaIS4_EESaIS6_EESaIS8_EED2Ev"
 "_ZNSt12_Vector_baseISt6vectorIS0_IS0_IS0_IS0_IdSaIdEESaIS2_EESaIS4_EESaIS6_EESaIS8_EESaISA_EE11_M_allocateEy"
 "_ZNSt12_Vector_baseISt6vectorIS0_IS0_IS0_IS0_IdSaIdEESaIS2_EESaIS4_EESaIS6_EESaIS8_EESaISA_EE12_Vector_implC1ERKSB_"
 "_ZNSt12_Vector_baseISt6vectorIS0_IS0_IS0_IS0_IdSaIdEESaIS2_EESaIS4_EESaIS6_EESaIS8_EESaISA_EE12_Vector_implC1Ev"
 "_ZNSt12_Vector_baseISt6vectorIS0_IS0_IS0_IS0_IdSaIdEESaIS2_EESaIS4_EESaIS6_EESaIS8_EESaISA_EE12_Vector_implD1Ev"
 "_ZNSt12_Vector_baseISt6vectorIS0_IS0_IS0_IS0_IdSaIdEESaIS2_EESaIS4_EESaIS6_EESaIS8_EESaISA_EE13_M_deallocateEPSA_y"
 "_ZNSt12_Vector_baseISt6vectorIS0_IS0_IS0_IS0_IdSaIdEESaIS2_EESaIS4_EESaIS6_EESaIS8_EESaISA_EE17_M_create_storageEy"
 "_ZNSt12_Vector_baseISt6vectorIS0_IS0_IS0_IS0_IdSaIdEESaIS2_EESaIS4_EESaIS6_EESaIS8_EESaISA_EE17_Vector_impl_data12_M_copy_dataERKSD_"
 "_ZNSt12_Vector_baseISt6vectorIS0_IS0_IS0_IS0_IdSaIdEESaIS2_EESaIS4_EESaIS6_EESaIS8_EESaISA_EE17_Vector_impl_data12_M_swap_dataERSD_"
 "_ZNSt12_Vector_baseISt6vectorIS0_IS0_IS0_IS0_IdSaIdEESaIS2_EESaIS4_EESaIS6_EESaIS8_EESaISA_EE17_Vector_impl_dataC1Ev"
 "_ZNSt12_Vector_baseISt6vectorIS0_IS0_IS0_IS0_IdSaIdEESaIS2_EESaIS4_EESaIS6_EESaIS8_EESaISA_EE17_Vector_impl_dataC2Ev"
 "_ZNSt12_Vector_baseISt6vectorIS0_IS0_IS0_IS0_IdSaIdEESaIS2_EESaIS4_EESaIS6_EESaIS8_EESaISA_EE19_M_get_Tp_allocatorEv"
 "_ZNSt12_Vector_baseISt6vectorIS0_IS0_IS0_IS0_IdSaIdEESaIS2_EESaIS4_EESaIS6_EESaIS8_EESaISA_EEC2ERKSB_"
 "_ZNSt12_Vector_baseISt6vectorIS0_IS0_IS0_IS0_IdSaIdEESaIS2_EESaIS4_EESaIS6_EESaIS8_EESaISA_EEC2Ev"
 "_ZNSt12_Vector_baseISt6vectorIS0_IS0_IS0_IS0_IdSaIdEESaIS2_EESaIS4_EESaIS6_EESaIS8_EESaISA_EEC2EyRKSB_"
 "_ZNSt12_Vector_baseISt6vectorIS0_IS0_IS0_IS0_IdSaIdEESaIS2_EESaIS4_EESaIS6_EESaIS8_EESaISA_EED2Ev"
 "_ZNSt12_Vector_baseISt6vectorIS0_IS0_IS0_IS0_IS0_IdSaIdEESaIS2_EESaIS4_EESaIS6_EESaIS8_EESaISA_EESaISC_EE11_M_allocateEy"
 "_ZNSt12_Vector_baseISt6vectorIS0_IS0_IS0_IS0_IS0_IdSaIdEESaIS2_EESaIS4_EESaIS6_EESaIS8_EESaISA_EESaISC_EE12_Vector_implC1ERKSD_"
 "_ZNSt12_Vector_baseISt6vectorIS0_IS0_IS0_IS0_IS0_IdSaIdEESaIS2_EESaIS4_EESaIS6_EESaIS8_EESaISA_EESaISC_EE12_Vector_implD1Ev"
 "_ZNSt12_Vector_baseISt6vectorIS0_IS0_IS0_IS0_IS0_IdSaIdEESaIS2_EESaIS4_EESaIS6_EESaIS8_EESaISA_EESaISC_EE13_M_deallocateEPSC_y"
 "_ZNSt12_Vector_baseISt6vectorIS0_IS0_IS0_IS0_IS0_IdSaIdEESaIS2_EESaIS4_EESaIS6_EESaIS8_EESaISA_EESaISC_EE17_M_create_storageEy"
 "_ZNSt12_Vector_baseISt6vectorIS0_IS0_IS0_IS0_IS0_IdSaIdEESaIS2_EESaIS4_EESaIS6_EESaIS8_EESaISA_EESaISC_EE17_Vector_impl_dataC2Ev"
 "_ZNSt12_Vector_baseISt6vectorIS0_IS0_IS0_IS0_IS0_IdSaIdEESaIS2_EESaIS4_EESaIS6_EESaIS8_EESaISA_EESaISC_EE19_M_get_Tp_allocatorEv"
 "_ZNSt12_Vector_baseISt6vectorIS0_IS0_IS0_IS0_IS0_IdSaIdEESaIS2_EESaIS4_EESaIS6_EESaIS8_EESaISA_EESaISC_EEC2EyRKSD_"
 "_ZNSt12_Vector_baseISt6vectorIS0_IS0_IS0_IS0_IS0_IdSaIdEESaIS2_EESaIS4_EESaIS6_EESaIS8_EESaISA_EESaISC_EED2Ev"
 "_ZNSt16allocator_traitsISaIdEE10deallocateERS0_Pdy"
 "_ZNSt16allocator_traitsISaIdEE8allocateERS0_y"
 "_ZNSt16allocator_traitsISaIdEE8max_sizeERKS0_"
 "_ZNSt16allocator_traitsISaINSt7__cxx1112basic_stringIcSt11char_traitsIcESaIcEEEEE10deallocateERS6_PS5_y"
 "_ZNSt16allocator_traitsISaISt6vectorIdSaIdEEEE10deallocateERS3_PS2_y"
 "_ZNSt16allocator_traitsISaISt6vectorIdSaIdEEEE8allocateERS3_y"
 "_ZNSt16allocator_traitsISaISt6vectorIdSaIdEEEE8max_sizeERKS3_"
 "_ZNSt16allocator_traitsISaISt6vectorIS0_IdSaIdEESaIS2_EEEE10deallocateERS5_PS4_y"
 "_ZNSt16allocator_traitsISaISt6vectorIS0_IdSaIdEESaIS2_EEEE8allocateERS5_y"
 "_ZNSt16allocator_traitsISaISt6vectorIS0_IdSaIdEESaIS2_EEEE8max_sizeERKS5_"
 "_ZNSt16allocator_traitsISaISt6vectorIS0_IS0_IdSaIdEESaIS2_EESaIS4_EEEE10deallocateERS7_PS6_y"
 "_ZNSt16allocator_traitsISaISt6vectorIS0_IS0_IdSaIdEESaIS2_EESaIS4_EEEE8allocateERS7_y"
 "_ZNSt16allocator_traitsISaISt6vectorIS0_IS0_IdSaIdEESaIS2_EESaIS4_EEEE8max_sizeERKS7_"
 "_ZNSt16allocator_traitsISaISt6vectorIS0_IS0_IS0_IdSaIdEESaIS2_EESaIS4_EESaIS6_EEEE10deallocateERS9_PS8_y"
 "_ZNSt16allocator_traitsISaISt6vectorIS0_IS0_IS0_IdSaIdEESaIS2_EESaIS4_EESaIS6_EEEE8allocateERS9_y"
 "_ZNSt16allocator_traitsISaISt6vectorIS0_IS0_IS0_IdSaIdEESaIS2_EESaIS4_EESaIS6_EEEE8max_sizeERKS9_"
 "_ZNSt16allocator_traitsISaISt6vectorIS0_IS0_IS0_IS0_IdSaIdEESaIS2_EESaIS4_EESaIS6_EESaIS8_EEEE10deallocateERSB_PSA_y"
 "_ZNSt16allocator_traitsISaISt6vectorIS0_IS0_IS0_IS0_IdSaIdEESaIS2_EESaIS4_EESaIS6_EESaIS8_EEEE8allocateERSB_y"
 "_ZNSt16allocator_traitsISaISt6vectorIS0_IS0_IS0_IS0_IdSaIdEESaIS2_EESaIS4_EESaIS6_EESaIS8_EEEE8max_sizeERKSB_"
 "_ZNSt16allocator_traitsISaISt6vectorIS0_IS0_IS0_IS0_IS0_IdSaIdEESaIS2_EESaIS4_EESaIS6_EESaIS8_EESaISA_EEEE10deallocateERSD_PSC_y"
 "_ZNSt16allocator_traitsISaISt6vectorIS0_IS0_IS0_IS0_IS0_IdSaIdEESaIS2_EESaIS4_EESaIS6_EESaIS8_EESaISA_EEEE8allocateERSD_y"
 "_ZNSt16allocator_traitsISaISt6vectorIS0_IS0_IS0_IS0_IS0_IdSaIdEESaIS2_EESaIS4_EESaIS6_EESaIS8_EESaISA_EEEE8max_sizeERKSD_"
 "_ZNSt20__uninitialized_copyILb1EE13__uninit_copyIPdS2_EET0_T_S4_S3_"
 "_ZNSt27__uninitialized_default_n_1ILb0EE18__uninit_default_nIPSt6vectorIdSaIdEEyEET_S6_T0_"
 "_ZNSt27__uninitialized_default_n_1ILb0EE18__uninit_default_nIPSt6vectorIS2_IdSaIdEESaIS4_EEyEET_S8_T0_"
 "_ZNSt27__uninitialized_default_n_1ILb0EE18__uninit_default_nIPSt6vectorIS2_IS2_IdSaIdEESaIS4_EESaIS6_EEyEET_SA_T0_"
 "_ZNSt27__uninitialized_default_n_1ILb0EE18__uninit_default_nIPSt6vectorIS2_IS2_IS2_IdSaIdEESaIS4_EESaIS6_EESaIS8_EEyEET_SC_T0_"
 "_ZNSt27__uninitialized_default_n_1ILb0EE18__uninit_default_nIPSt6vectorIS2_IS2_IS2_IS2_IdSaIdEESaIS4_EESaIS6_EESaIS8_EESaISA_EEyEET_SE_T0_"
 "_ZNSt27__uninitialized_default_n_1ILb0EE18__uninit_default_nIPSt6vectorIS2_IS2_IS2_IS2_IS2_IdSaIdEESaIS4_EESaIS6_EESaIS8_EESaISA_EESaISC_EEyEET_SG_T0_"
 "_ZNSt27__uninitialized_default_n_1ILb1EE18__uninit_default_nIPdyEET_S3_T0_"
 "_ZNSt6vectorIdSaIdEE11_S_max_sizeERKS0_"
 "_ZNSt6vectorIdSaIdEE14_M_move_assignEOS1_St17integral_constantIbLb1EE"
 "_ZNSt6vectorIdSaIdEE17_S_check_init_lenEyRKS0_"
 "_ZNSt6vectorIdSaIdEE19_M_range_initializeIPdEEvT_S4_St20forward_iterator_tag"
 "_ZNSt6vectorIdSaIdEE21_M_default_initializeEy"
 "_ZNSt6vectorIdSaIdEE5beginEv"
 "_ZNSt6vectorIdSaIdEEaSEOS1_"
 "_ZNSt6vectorIdSaIdEEC1EOS1_"
 "_ZNSt6vectorIdSaIdEEC1ERKS0_"
 "_ZNSt6vectorIdSaIdEEC1Ev"
 "_ZNSt6vectorIdSaIdEEC1EyRKS0_"
 "_ZNSt6vectorIdSaIdEEC1IPdvEET_S4_RKS0_"
 "_ZNSt6vectorIdSaIdEED1Ev"
 "_ZNSt6vectorINSt7__cxx1112basic_stringIcSt11char_traitsIcESaIcEEESaIS5_EEC1Ev"
 "_ZNSt6vectorINSt7__cxx1112basic_stringIcSt11char_traitsIcESaIcEEESaIS5_EED1Ev"
 "_ZNSt6vectorIS_IdSaIdEESaIS1_EE11_S_max_sizeERKS2_"
 "_ZNSt6vectorIS_IdSaIdEESaIS1_EE14_M_move_assignEOS3_St17integral_constantIbLb1EE"
 "_ZNSt6vectorIS_IdSaIdEESaIS1_EE17_S_check_init_lenEyRKS2_"
 "_ZNSt6vectorIS_IdSaIdEESaIS1_EE21_M_default_initializeEy"
 "_ZNSt6vectorIS_IdSaIdEESaIS1_EE5beginEv"
 "_ZNSt6vectorIS_IdSaIdEESaIS1_EEaSEOS3_"
 "_ZNSt6vectorIS_IdSaIdEESaIS1_EEC1ERKS2_"
 "_ZNSt6vectorIS_IdSaIdEESaIS1_EEC1Ev"
 "_ZNSt6vectorIS_IdSaIdEESaIS1_EEC1EyRKS2_"
 "_ZNSt6vectorIS_IdSaIdEESaIS1_EED1Ev"
 "_ZNSt6vectorIS_IS_IdSaIdEESaIS1_EESaIS3_EE11_S_max_sizeERKS4_"
 "_ZNSt6vectorIS_IS_IdSaIdEESaIS1_EESaIS3_EE14_M_move_assignEOS5_St17integral_constantIbLb1EE"
 "_ZNSt6vectorIS_IS_IdSaIdEESaIS1_EESaIS3_EE17_S_check_init_lenEyRKS4_"
 "_ZNSt6vectorIS_IS_IdSaIdEESaIS1_EESaIS3_EE21_M_default_initializeEy"
 "_ZNSt6vectorIS_IS_IdSaIdEESaIS1_EESaIS3_EE5beginEv"
 "_ZNSt6vectorIS_IS_IdSaIdEESaIS1_EESaIS3_EEaSEOS5_"
 "_ZNSt6vectorIS_IS_IdSaIdEESaIS1_EESaIS3_EEC1ERKS4_"
 "_ZNSt6vectorIS_IS_IdSaIdEESaIS1_EESaIS3_EEC1Ev"
 "_ZNSt6vectorIS_IS_IdSaIdEESaIS1_EESaIS3_EEC1EyRKS4_"
 "_ZNSt6vectorIS_IS_IdSaIdEESaIS1_EESaIS3_EED1Ev"
 "_ZNSt6vectorIS_IS_IS_IdSaIdEESaIS1_EESaIS3_EESaIS5_EE11_S_max_sizeERKS6_"
 "_ZNSt6vectorIS_IS_IS_IdSaIdEESaIS1_EESaIS3_EESaIS5_EE14_M_move_assignEOS7_St17integral_constantIbLb1EE"
 "_ZNSt6vectorIS_IS_IS_IdSaIdEESaIS1_EESaIS3_EESaIS5_EE17_S_check_init_lenEyRKS6_"
 "_ZNSt6vectorIS_IS_IS_IdSaIdEESaIS1_EESaIS3_EESaIS5_EE21_M_default_initializeEy"
 "_ZNSt6vectorIS_IS_IS_IdSaIdEESaIS1_EESaIS3_EESaIS5_EE5beginEv"
 "_ZNSt6vectorIS_IS_IS_IdSaIdEESaIS1_EESaIS3_EESaIS5_EEaSEOS7_"
 "_ZNSt6vectorIS_IS_IS_IdSaIdEESaIS1_EESaIS3_EESaIS5_EEC1ERKS6_"
 "_ZNSt6vectorIS_IS_IS_IdSaIdEESaIS1_EESaIS3_EESaIS5_EEC1Ev"
 "_ZNSt6vectorIS_IS_IS_IdSaIdEESaIS1_EESaIS3_EESaIS5_EEC1EyRKS6_"
 "_ZNSt6vectorIS_IS_IS_IdSaIdEESaIS1_EESaIS3_EESaIS5_EED1Ev"
 "_ZNSt6vectorIS_IS_IS_IS_IdSaIdEESaIS1_EESaIS3_EESaIS5_EESaIS7_EE11_S_max_sizeERKS8_"
 "_ZNSt6vectorIS_IS_IS_IS_IdSaIdEESaIS1_EESaIS3_EESaIS5_EESaIS7_EE14_M_move_assignEOS9_St17integral_constantIbLb1EE"
 "_ZNSt6vectorIS_IS_IS_IS_IdSaIdEESaIS1_EESaIS3_EESaIS5_EESaIS7_EE17_S_check_init_lenEyRKS8_"
 "_ZNSt6vectorIS_IS_IS_IS_IdSaIdEESaIS1_EESaIS3_EESaIS5_EESaIS7_EE21_M_default_initializeEy"
 "_ZNSt6vectorIS_IS_IS_IS_IdSaIdEESaIS1_EESaIS3_EESaIS5_EESaIS7_EE5beginEv"
 "_ZNSt6vectorIS_IS_IS_IS_IdSaIdEESaIS1_EESaIS3_EESaIS5_EESaIS7_EEaSEOS9_"
 "_ZNSt6vectorIS_IS_IS_IS_IdSaIdEESaIS1_EESaIS3_EESaIS5_EESaIS7_EEC1ERKS8_"
 "_ZNSt6vectorIS_IS_IS_IS_IdSaIdEESaIS1_EESaIS3_EESaIS5_EESaIS7_EEC1Ev"
 "_ZNSt6vectorIS_IS_IS_IS_IdSaIdEESaIS1_EESaIS3_EESaIS5_EESaIS7_EEC1EyRKS8_"
 "_ZNSt6vectorIS_IS_IS_IS_IdSaIdEESaIS1_EESaIS3_EESaIS5_EESaIS7_EED1Ev"
 "_ZNSt6vectorIS_IS_IS_IS_IS_IdSaIdEESaIS1_EESaIS3_EESaIS5_EESaIS7_EESaIS9_EE11_S_max_sizeERKSA_"
 "_ZNSt6vectorIS_IS_IS_IS_IS_IdSaIdEESaIS1_EESaIS3_EESaIS5_EESaIS7_EESaIS9_EE14_M_move_assignEOSB_St17integral_constantIbLb1EE"
 "_ZNSt6vectorIS_IS_IS_IS_IS_IdSaIdEESaIS1_EESaIS3_EESaIS5_EESaIS7_EESaIS9_EE17_S_check_init_lenEyRKSA_"
 "_ZNSt6vectorIS_IS_IS_IS_IS_IdSaIdEESaIS1_EESaIS3_EESaIS5_EESaIS7_EESaIS9_EE21_M_default_initializeEy"
 "_ZNSt6vectorIS_IS_IS_IS_IS_IdSaIdEESaIS1_EESaIS3_EESaIS5_EESaIS7_EESaIS9_EE5beginEv"
 "_ZNSt6vectorIS_IS_IS_IS_IS_IdSaIdEESaIS1_EESaIS3_EESaIS5_EESaIS7_EESaIS9_EEaSEOSB_"
 "_ZNSt6vectorIS_IS_IS_IS_IS_IdSaIdEESaIS1_EESaIS3_EESaIS5_EESaIS7_EESaIS9_EEC1ERKSA_"
 "_ZNSt6vectorIS_IS_IS_IS_IS_IdSaIdEESaIS1_EESaIS3_EESaIS5_EESaIS7_EESaIS9_EEC1Ev"
 "_ZNSt6vectorIS_IS_IS_IS_IS_IdSaIdEESaIS1_EESaIS3_EESaIS5_EESaIS7_EESaIS9_EEC1EyRKSA_"
 "_ZNSt6vectorIS_IS_IS_IS_IS_IdSaIdEESaIS1_EESaIS3_EESaIS5_EESaIS7_EESaIS9_EED1Ev"
 "_ZNSt6vectorIS_IS_IS_IS_IS_IS_IdSaIdEESaIS1_EESaIS3_EESaIS5_EESaIS7_EESaIS9_EESaISB_EE11_S_max_sizeERKSC_"
 "_ZNSt6vectorIS_IS_IS_IS_IS_IS_IdSaIdEESaIS1_EESaIS3_EESaIS5_EESaIS7_EESaIS9_EESaISB_EE17_S_check_init_lenEyRKSC_"
 "_ZNSt6vectorIS_IS_IS_IS_IS_IS_IdSaIdEESaIS1_EESaIS3_EESaIS5_EESaIS7_EESaIS9_EESaISB_EE21_M_default_initializeEy"
 "_ZNSt6vectorIS_IS_IS_IS_IS_IS_IdSaIdEESaIS1_EESaIS3_EESaIS5_EESaIS7_EESaIS9_EESaISB_EE5beginEv"
 "_ZNSt6vectorIS_IS_IS_IS_IS_IS_IdSaIdEESaIS1_EESaIS3_EESaIS5_EESaIS7_EESaIS9_EESaISB_EEC1EyRKSC_"
 "_ZNSt6vectorIS_IS_IS_IS_IS_IS_IdSaIdEESaIS1_EESaIS3_EESaIS5_EESaIS7_EESaIS9_EESaISB_EED1Ev"
 "_ZNSt8ios_base4setfESt13_Ios_Fmtflags"
 "_ZNSt8ios_base4setfESt13_Ios_FmtflagsS0_"
 "_ZNSt8ios_base5flagsESt13_Ios_Fmtflags"
 "_ZNSt8ios_base5widthEx"
 "_ZNSt8ios_base6unsetfESt13_Ios_Fmtflags"
 "_ZNSt8ios_base9precisionEx"
 "_ZNSt9exceptionC2Ev"
 "_ZnwyPv"
 "_ZSt10__distanceIPdENSt15iterator_traitsIT_E15difference_typeES2_S2_St26random_access_iterator_tag"
 "_ZSt10__fill_n_aIPdydET_S1_T0_RKT1_St26random_access_iterator_tag"
 "_ZSt10_ConstructISt6vectorIdSaIdEEJEEvPT_DpOT0_"
 "_ZSt10_ConstructISt6vectorIS0_IdSaIdEESaIS2_EEJEEvPT_DpOT0_"
 "_ZSt10_ConstructISt6vectorIS0_IS0_IdSaIdEESaIS2_EESaIS4_EEJEEvPT_DpOT0_"
 "_ZSt10_ConstructISt6vectorIS0_IS0_IS0_IdSaIdEESaIS2_EESaIS4_EESaIS6_EEJEEvPT_DpOT0_"
 "_ZSt10_ConstructISt6vectorIS0_IS0_IS0_IS0_IdSaIdEESaIS2_EESaIS4_EESaIS6_EESaIS8_EEJEEvPT_DpOT0_"
 "_ZSt10_ConstructISt6vectorIS0_IS0_IS0_IS0_IS0_IdSaIdEESaIS2_EESaIS4_EESaIS6_EESaIS8_EESaISA_EEJEEvPT_DpOT0_"
 "_ZSt11__addressofINSt7__cxx1112basic_stringIcSt11char_traitsIcESaIcEEEEPT_RS6_"
 "_ZSt11__addressofISt6vectorIdSaIdEEEPT_RS3_"
 "_ZSt11__addressofISt6vectorIS0_IdSaIdEESaIS2_EEEPT_RS5_"
 "_ZSt11__addressofISt6vectorIS0_IS0_IdSaIdEESaIS2_EESaIS4_EEEPT_RS7_"
 "_ZSt11__addressofISt6vectorIS0_IS0_IS0_IdSaIdEESaIS2_EESaIS4_EESaIS6_EEEPT_RS9_"
 "_ZSt11__addressofISt6vectorIS0_IS0_IS0_IS0_IdSaIdEESaIS2_EESaIS4_EESaIS6_EESaIS8_EEEPT_RSB_"
 "_ZSt11__addressofISt6vectorIS0_IS0_IS0_IS0_IS0_IdSaIdEESaIS2_EESaIS4_EESaIS6_EESaIS8_EESaISA_EEEPT_RSD_"
 "_ZSt12__miter_baseIN9__gnu_cxx17__normal_iteratorIPKNSt7__cxx1112basic_stringIcSt11char_traitsIcESaIcEEESt6vectorIS7_SaIS7_EEEEET_SE_"
 "_ZSt12__miter_baseIPdET_S1_"
 "_ZSt12__niter_baseIN4Rcpp8internal14Proxy_IteratorINS1_12string_proxyILi16ENS0_15PreserveStorageEEEEEET_S7_"
 "_ZSt12__niter_baseIPdET_S1_"
 "_ZSt12__niter_baseIPdSt6vectorIdSaIdEEET_N9__gnu_cxx17__normal_iteratorIS4_T0_EE"
 "_ZSt12__niter_baseIPKNSt7__cxx1112basic_stringIcSt11char_traitsIcESaIcEEESt6vectorIS5_SaIS5_EEET_N9__gnu_cxx17__normal_iteratorISB_T0_EE"
 "_ZSt12__niter_wrapIN4Rcpp8internal14Proxy_IteratorINS1_12string_proxyILi16ENS0_15PreserveStorageEEEEEET_RKS7_S7_"
 "_ZSt12__niter_wrapIN9__gnu_cxx17__normal_iteratorIPdSt6vectorIdSaIdEEEES2_ET_S7_T0_"
 "_ZSt12__niter_wrapIPdET_RKS1_S1_"
 "_ZSt13__copy_move_aILb0EN9__gnu_cxx17__normal_iteratorIPKNSt7__cxx1112basic_stringIcSt11char_traitsIcESaIcEEESt6vectorIS7_SaIS7_EEEEN4Rcpp8internal14Proxy_IteratorINSF_12string_proxyILi16ENSE_15PreserveStorageEEEEEET1_T0_SM_SL_"
 "_ZSt13__copy_move_aILb0EPdN9__gnu_cxx17__normal_iteratorIS0_St6vectorIdSaIdEEEEET1_T0_S8_S7_"
 "_ZSt13__copy_move_aILb0EPdS0_ET1_T0_S2_S1_"
 "_ZSt14__copy_move_a1ILb0EPdS0_ET1_T0_S2_S1_"
 "_ZSt14__copy_move_a1ILb0EPKNSt7__cxx1112basic_stringIcSt11char_traitsIcESaIcEEEN4Rcpp8internal14Proxy_IteratorINS9_12string_proxyILi16ENS8_15PreserveStorageEEEEEET1_T0_SG_SF_"
 "_ZSt14__copy_move_a2ILb0EPdS0_ET1_T0_S2_S1_"
 "_ZSt14__copy_move_a2ILb0EPKNSt7__cxx1112basic_stringIcSt11char_traitsIcESaIcEEEN4Rcpp8internal14Proxy_IteratorINS9_12string_proxyILi16ENS8_15PreserveStorageEEEEEET1_T0_SG_SF_"
 "_ZSt15__alloc_on_moveISaIdEEvRT_S2_"
 "_ZSt15__alloc_on_moveISaISt6vectorIdSaIdEEEEvRT_S5_"
 "_ZSt15__alloc_on_moveISaISt6vectorIS0_IdSaIdEESaIS2_EEEEvRT_S7_"
 "_ZSt15__alloc_on_moveISaISt6vectorIS0_IS0_IdSaIdEESaIS2_EESaIS4_EEEEvRT_S9_"
 "_ZSt15__alloc_on_moveISaISt6vectorIS0_IS0_IS0_IdSaIdEESaIS2_EESaIS4_EESaIS6_EEEEvRT_SB_"
 "_ZSt15__alloc_on_moveISaISt6vectorIS0_IS0_IS0_IS0_IdSaIdEESaIS2_EESaIS4_EESaIS6_EESaIS8_EEEEvRT_SD_"
 "_ZSt17__size_to_integery"
 "_ZSt18__do_alloc_on_moveISaIdEEvRT_S2_St17integral_constantIbLb1EE"
 "_ZSt18__do_alloc_on_moveISaISt6vectorIdSaIdEEEEvRT_S5_St17integral_constantIbLb1EE"
 "_ZSt18__do_alloc_on_moveISaISt6vectorIS0_IdSaIdEESaIS2_EEEEvRT_S7_St17integral_constantIbLb1EE"
 "_ZSt18__do_alloc_on_moveISaISt6vectorIS0_IS0_IdSaIdEESaIS2_EESaIS4_EEEEvRT_S9_St17integral_constantIbLb1EE"
 "_ZSt18__do_alloc_on_moveISaISt6vectorIS0_IS0_IS0_IdSaIdEESaIS2_EESaIS4_EESaIS6_EEEEvRT_SB_St17integral_constantIbLb1EE"
 "_ZSt18__do_alloc_on_moveISaISt6vectorIS0_IS0_IS0_IS0_IdSaIdEESaIS2_EESaIS4_EESaIS6_EESaIS8_EEEEvRT_SD_St17integral_constantIbLb1EE"
 "_ZSt18uninitialized_copyIPdS0_ET0_T_S2_S1_"
 "_ZSt19__iterator_categoryIPdENSt15iterator_traitsIT_E17iterator_categoryERKS2_"
 "_ZSt22__uninitialized_copy_aIPdS0_dET0_T_S2_S1_RSaIT1_E"
 "_ZSt25__uninitialized_default_nIPdyET_S1_T0_"
 "_ZSt25__uninitialized_default_nIPSt6vectorIdSaIdEEyET_S4_T0_"
 "_ZSt25__uninitialized_default_nIPSt6vectorIS0_IdSaIdEESaIS2_EEyET_S6_T0_"
 "_ZSt25__uninitialized_default_nIPSt6vectorIS0_IS0_IdSaIdEESaIS2_EESaIS4_EEyET_S8_T0_"
 "_ZSt25__uninitialized_default_nIPSt6vectorIS0_IS0_IS0_IdSaIdEESaIS2_EESaIS4_EESaIS6_EEyET_SA_T0_"
 "_ZSt25__uninitialized_default_nIPSt6vectorIS0_IS0_IS0_IS0_IdSaIdEESaIS2_EESaIS4_EESaIS6_EESaIS8_EEyET_SC_T0_"
 "_ZSt25__uninitialized_default_nIPSt6vectorIS0_IS0_IS0_IS0_IS0_IdSaIdEESaIS2_EESaIS4_EESaIS6_EESaIS8_EESaISA_EEyET_SE_T0_"
 "_ZSt27__uninitialized_default_n_aIPdydET_S1_T0_RSaIT1_E"
 "_ZSt27__uninitialized_default_n_aIPSt6vectorIdSaIdEEyS2_ET_S4_T0_RSaIT1_E"
 "_ZSt27__uninitialized_default_n_aIPSt6vectorIS0_IdSaIdEESaIS2_EEyS4_ET_S6_T0_RSaIT1_E"
 "_ZSt27__uninitialized_default_n_aIPSt6vectorIS0_IS0_IdSaIdEESaIS2_EESaIS4_EEyS6_ET_S8_T0_RSaIT1_E"
 "_ZSt27__uninitialized_default_n_aIPSt6vectorIS0_IS0_IS0_IdSaIdEESaIS2_EESaIS4_EESaIS6_EEyS8_ET_SA_T0_RSaIT1_E"
 "_ZSt27__uninitialized_default_n_aIPSt6vectorIS0_IS0_IS0_IS0_IdSaIdEESaIS2_EESaIS4_EESaIS6_EESaIS8_EEySA_ET_SC_T0_RSaIT1_E"
 "_ZSt27__uninitialized_default_n_aIPSt6vectorIS0_IS0_IS0_IS0_IS0_IdSaIdEESaIS2_EESaIS4_EESaIS6_EESaIS8_EESaISA_EEySC_ET_SE_T0_RSaIT1_E"
 "_ZSt3minIiERKT_S2_S2_"
 "_ZSt3minIyERKT_S2_S2_"
 "_ZSt4copyIN9__gnu_cxx17__normal_iteratorIPKNSt7__cxx1112basic_stringIcSt11char_traitsIcESaIcEEESt6vectorIS7_SaIS7_EEEEN4Rcpp8internal14Proxy_IteratorINSF_12string_proxyILi16ENSE_15PreserveStorageEEEEEET0_T_SM_SL_"
 "_ZSt4copyIPdN9__gnu_cxx17__normal_iteratorIS0_St6vectorIdSaIdEEEEET0_T_S8_S7_"
 "_ZSt4copyIPdS0_ET0_T_S2_S1_"
 "_ZSt4moveIRNSt12_Vector_baseIdSaIdEE12_Vector_implEEONSt16remove_referenceIT_E4typeEOS6_"
 "_ZSt4moveIRSaIdEEONSt16remove_referenceIT_E4typeEOS3_"
 "_ZSt4moveIRSaISt6vectorIdSaIdEEEEONSt16remove_referenceIT_E4typeEOS6_"
 "_ZSt4moveIRSaISt6vectorIS0_IdSaIdEESaIS2_EEEEONSt16remove_referenceIT_E4typeEOS8_"
 "_ZSt4moveIRSaISt6vectorIS0_IS0_IdSaIdEESaIS2_EESaIS4_EEEEONSt16remove_referenceIT_E4typeEOSA_"
 "_ZSt4moveIRSaISt6vectorIS0_IS0_IS0_IdSaIdEESaIS2_EESaIS4_EESaIS6_EEEEONSt16remove_referenceIT_E4typeEOSC_"
 "_ZSt4moveIRSaISt6vectorIS0_IS0_IS0_IS0_IdSaIdEESaIS2_EESaIS4_EESaIS6_EESaIS8_EEEEONSt16remove_referenceIT_E4typeEOSE_"
 "_ZSt4moveIRSt6vectorIdSaIdEEEONSt16remove_referenceIT_E4typeEOS5_"
 "_ZSt4moveIRSt6vectorIS0_IdSaIdEESaIS2_EEEONSt16remove_referenceIT_E4typeEOS7_"
 "_ZSt4moveIRSt6vectorIS0_IS0_IdSaIdEESaIS2_EESaIS4_EEEONSt16remove_referenceIT_E4typeEOS9_"
 "_ZSt4moveIRSt6vectorIS0_IS0_IS0_IdSaIdEESaIS2_EESaIS4_EESaIS6_EEEONSt16remove_referenceIT_E4typeEOSB_"
 "_ZSt4moveIRSt6vectorIS0_IS0_IS0_IS0_IdSaIdEESaIS2_EESaIS4_EESaIS6_EESaIS8_EEEONSt16remove_referenceIT_E4typeEOSD_"
 "_ZSt4moveIRSt6vectorIS0_IS0_IS0_IS0_IS0_IdSaIdEESaIS2_EESaIS4_EESaIS6_EESaIS8_EESaISA_EEEONSt16remove_referenceIT_E4typeEOSF_"
 "_ZSt6fill_nIPdydET_S1_T0_RKT1_"
 "_ZSt7forwardIiEOT_RNSt16remove_referenceIS0_E4typeE"
 "_ZSt7forwardIPKcEOT_RNSt16remove_referenceIS2_E4typeE"
 "_ZSt7forwardIRKPKcEOT_RNSt16remove_referenceIS4_E4typeE"
 "_ZSt8__fill_aIPddEvT_S1_RKT0_"
 "_ZSt8_DestroyINSt7__cxx1112basic_stringIcSt11char_traitsIcESaIcEEEEvPT_"
 "_ZSt8_DestroyIPddEvT_S1_RSaIT0_E"
 "_ZSt8_DestroyIPdEvT_S1_"
 "_ZSt8_DestroyIPNSt7__cxx1112basic_stringIcSt11char_traitsIcESaIcEEEEvT_S7_"
 "_ZSt8_DestroyIPNSt7__cxx1112basic_stringIcSt11char_traitsIcESaIcEEES5_EvT_S7_RSaIT0_E"
 "_ZSt8_DestroyIPSt6vectorIdSaIdEEEvT_S4_"
 "_ZSt8_DestroyIPSt6vectorIdSaIdEES2_EvT_S4_RSaIT0_E"
 "_ZSt8_DestroyIPSt6vectorIS0_IdSaIdEESaIS2_EEEvT_S6_"
 "_ZSt8_DestroyIPSt6vectorIS0_IdSaIdEESaIS2_EES4_EvT_S6_RSaIT0_E"
 "_ZSt8_DestroyIPSt6vectorIS0_IS0_IdSaIdEESaIS2_EESaIS4_EEEvT_S8_"
 "_ZSt8_DestroyIPSt6vectorIS0_IS0_IdSaIdEESaIS2_EESaIS4_EES6_EvT_S8_RSaIT0_E"
 "_ZSt8_DestroyIPSt6vectorIS0_IS0_IS0_IdSaIdEESaIS2_EESaIS4_EESaIS6_EEEvT_SA_"
 "_ZSt8_DestroyIPSt6vectorIS0_IS0_IS0_IdSaIdEESaIS2_EESaIS4_EESaIS6_EES8_EvT_SA_RSaIT0_E"
 "_ZSt8_DestroyIPSt6vectorIS0_IS0_IS0_IS0_IdSaIdEESaIS2_EESaIS4_EESaIS6_EESaIS8_EEEvT_SC_"
 "_ZSt8_DestroyIPSt6vectorIS0_IS0_IS0_IS0_IdSaIdEESaIS2_EESaIS4_EESaIS6_EESaIS8_EESA_EvT_SC_RSaIT0_E"
 "_ZSt8_DestroyIPSt6vectorIS0_IS0_IS0_IS0_IS0_IdSaIdEESaIS2_EESaIS4_EESaIS6_EESaIS8_EESaISA_EEEvT_SE_"
 "_ZSt8_DestroyIPSt6vectorIS0_IS0_IS0_IS0_IS0_IdSaIdEESaIS2_EESaIS4_EESaIS6_EESaIS8_EESaISA_EESC_EvT_SE_RSaIT0_E"
 "_ZSt8_DestroyISt6vectorIdSaIdEEEvPT_"
 "_ZSt8_DestroyISt6vectorIS0_IdSaIdEESaIS2_EEEvPT_"
 "_ZSt8_DestroyISt6vectorIS0_IS0_IdSaIdEESaIS2_EESaIS4_EEEvPT_"
 "_ZSt8_DestroyISt6vectorIS0_IS0_IS0_IdSaIdEESaIS2_EESaIS4_EESaIS6_EEEvPT_"
 "_ZSt8_DestroyISt6vectorIS0_IS0_IS0_IS0_IdSaIdEESaIS2_EESaIS4_EESaIS6_EESaIS8_EEEvPT_"
 "_ZSt8_DestroyISt6vectorIS0_IS0_IS0_IS0_IS0_IdSaIdEESaIS2_EESaIS4_EESaIS6_EESaIS8_EESaISA_EEEvPT_"
 "_ZSt8distanceIPdENSt15iterator_traitsIT_E15difference_typeES2_S2_"
 "_ZSt9__fill_a1IPddEN9__gnu_cxx11__enable_ifIXsrSt11__is_scalarIT0_E7__valueEvE6__typeET_S8_RKS4_"
 "_ZStaNRSt13_Ios_FmtflagsS_"
 "_ZStanSt13_Ios_FmtflagsS_"
 "_ZStcoSt13_Ios_Fmtflags"
 "_ZStoRRSt13_Ios_FmtflagsS_"
 "_ZStorSt13_Ios_FmtflagsS_"
 "_ZTCN4Rcpp8RostreamILb0EEE0_So"
 "_ZTCN4Rcpp8RostreamILb1EEE0_So"
 "_ZTIN4Rcpp10eval_errorE"
 "_ZTIN4Rcpp10RstreambufILb0EEE"
 "_ZTIN4Rcpp10RstreambufILb1EEE"
 "_ZTIN4Rcpp14not_compatibleE"
 "_ZTIN4Rcpp17LongjumpExceptionE"
 "_ZTIN4Rcpp8internal20InterruptedExceptionE"
 "_ZTIN4Rcpp8RostreamILb0EEE"
 "_ZTIN4Rcpp8RostreamILb1EEE"
 "_ZTIN4Rcpp9exceptionE"
 "_ZTISt9exception"
 "_ZTSN4Rcpp10eval_errorE"
 "_ZTSN4Rcpp10RstreambufILb0EEE"
 "_ZTSN4Rcpp10RstreambufILb1EEE"
 "_ZTSN4Rcpp14not_compatibleE"
 "_ZTSN4Rcpp17LongjumpExceptionE"
 "_ZTSN4Rcpp8internal20InterruptedExceptionE"
 "_ZTSN4Rcpp8RostreamILb0EEE"
 "_ZTSN4Rcpp8RostreamILb1EEE"
 "_ZTSN4Rcpp9exceptionE"
 "_ZTSSt9exception"
 "_ZTTN4Rcpp8RostreamILb0EEE"
 "_ZTTN4Rcpp8RostreamILb1EEE"
 "_ZTv0_n24_N4Rcpp8RostreamILb0EED0Ev"
 "_ZTv0_n24_N4Rcpp8RostreamILb0EED1Ev"
 "_ZTv0_n24_N4Rcpp8RostreamILb1EED0Ev"
 "_ZTv0_n24_N4Rcpp8RostreamILb1EED1Ev"
 "_ZTVN4Rcpp10RstreambufILb0EEE"
 "_ZTVN4Rcpp10RstreambufILb1EEE"
 "_ZTVN4Rcpp14not_compatibleE"
 "_ZTVN4Rcpp8RostreamILb0EEE"
 "_ZTVN4Rcpp8RostreamILb1EEE"
 "_ZTVN4Rcpp9exceptionE"
 "_ZZ20rcpp_get_stack_tracevE3fun"
 "_ZZ20rcpp_set_stack_traceP7SEXPRECE3fun"
 "_ZZ7dataptrP7SEXPRECE3fun"
 "_ZZ8demangleRKNSt7__cxx1112basic_stringIcSt11char_traitsIcESaIcEEEE3funB5cxx11"
 "_ZZN4Rcpp20Rcpp_precious_removeEP7SEXPRECE3fun"
 "_ZZN4Rcpp22Rcpp_precious_preserveEP7SEXPRECE3fun"
 "_ZZN4Rcpp8internal12exitRNGScopeEvE3fun"
 "_ZZN4Rcpp8internal13enterRNGScopeEvE3fun"
 "R_init_gonoHistoryMatching"
